(dp1
S'output'
p2
S"<type 'exceptions.IOError'> [Errno 5] Input/output error"
p3
sS'layer'
p4
S'/Users/logyuan/Documents/web2py/applications/fbbrt/controllers/newsAPI.py'
p5
sS'code'
p6
S'# coding: utf8\n# try something like\nimport urllib\nimport json\nimport dateutil\nimport datetime\nimport string\nimport re\nimport itertools\nfrom collections import Counter\nfrom collections import OrderedDict\nfrom dateutil import parser\nfrom datetime import timedelta\nimport jieba\nimport jieba.analyse\nimport jieba.posseg as pseg\nfrom snownlp import SnowNLP\nfrom snownlp import sentiment\nfrom datetime import timedelta\nfrom operator import itemgetter\nimport codecs\nimport os\n\n#pos_train = os.path.join(request.folder,\'private\',\'dictionary\',\'pos.txt\')\n#nag_train = os.path.join(request.folder,\'private\',\'dictionary\',\'nag.txt\')\n#sentiment.train(pos_train, nag_train)\n\n#sentiment.save(os.path.join(request.folder,\'private\',\'sentiment.marshal\'))\n# sentiment.train(\'/usr/local/lib/python2.7/site-packages/snownlp/sentiment/blue.txt\', \'/usr/local/lib/python2.7/site-packages/snownlp/sentiment/green.txt\')\n#sentiment.save(\'/usr/local/lib/python2.7/site-packages/snownlp/sentiment/sentiment.marshal\')\n\n\ndictionary_path = os.path.join(request.folder,\'private\',\'dictionary\',\'dict.txt.big.txt\')\nuserdict_path = os.path.join(request.folder,\'private\',\'dictionary\',\'userdict.txt\')\nstopwords_path = os.path.join(request.folder,\'private\',\'dictionary\',\'stop_words.txt\')\nidf_path = os.path.join(request.folder,\'private\',\'dictionary\',\'idf.txt.big.txt\')\n\njieba.set_dictionary(dictionary_path)\njieba.load_userdict(userdict_path)\njieba.analyse.set_stop_words(stopwords_path)\njieba.analyse.set_idf_path(idf_path)\n\nstopwords_file = open(stopwords_path, \'r\')\nstopwords = [unicode(line.strip(\'\\n\'), "utf-8") for line in stopwords_file.readlines()]\n\n\n#jieba.initialize()\n\n\ndelEnStr = string.punctuation + \' \' + string.digits\ndelZhStr = u\'\xe3\x80\x8a\xe3\x80\x8b\xef\xbc\x88\xef\xbc\x89&%\xef\xbf\xa5#@\xef\xbc\x81{}\xe3\x80\x90\xe3\x80\x91\xe3\x80\x8c\xe3\x80\x8d\xe3\x80\x8e\xe3\x80\x8f\xef\xbc\x9f\xef\xbd\x9c\xef\xbc\x8c\xe3\x80\x81\xe3\x80\x82\xef\xbc\x9a\xef\xbc\x9b\xe4\xb8\xb6\xef\xbd\x9e\xe3\x80\x80\' + delEnStr.encode(\'utf8\')\n\n\ndef index():\n    started_time = datetime.datetime.now()\n    Brtnews24_url = "https://www.kimonolabs.com/api/47bg0pfm?apikey=22879e6cd7538eea6e95b90aa70afccc"\n    Brtnews7days_url = "https://www.kimonolabs.com/api/ajldjyxq?apikey=22879e6cd7538eea6e95b90aa70afccc"\n    Brtnews30days_url = "https://www.kimonolabs.com/api/5xnus1ws?apikey=22879e6cd7538eea6e95b90aa70afccc"\n    Brtnews1year_url = "https://www.kimonolabs.com/api/d1shcaww?apikey=22879e6cd7538eea6e95b90aa70afccc"\n    kimono_api(Brtnews7days_url, "BRT")\n    \n\n    mayor24_url = "https://www.kimonolabs.com/api/7br3eu62?apikey=22879e6cd7538eea6e95b90aa70afccc"\n    mayor7days_url = "https://www.kimonolabs.com/api/863lok12?apikey=22879e6cd7538eea6e95b90aa70afccc"\n    mayor30days_url = "https://www.kimonolabs.com/api/8h259vhq?apikey=22879e6cd7538eea6e95b90aa70afccc"\n    mayor1year_url = "https://www.kimonolabs.com/api/cs5dtbm0?apikey=22879e6cd7538eea6e95b90aa70afccc"\n    #kimono_api(mayor1year_url, "\xe6\x9e\x97\xe4\xbd\xb3\xe9\xbe\x8d")\n\n    today = datetime.datetime.today()\n    date = today - timedelta(days=3)\n    fromdate = datetime.datetime.strftime(date, "%Y/%m/%d")\n    todate = datetime.datetime.strftime(today, "%Y/%m/%d")\n    #checkDBNewsComments()\n    #checkDBNewsCommentsFromDate(fromdate)\n    ended_time = datetime.datetime.now()\n    fbdb.event_logs.insert(function=\'kimono_api\', started_time=started_time, ended_time=ended_time)\n    fbdb.commit()\n    started_time = datetime.datetime.now()\n    Socialcount()\n    ended_time = datetime.datetime.now()\n    fbdb.event_logs.insert(function=\'updateSocialcount\', started_time=started_time, ended_time=ended_time)\n    fbdb.commit()\n    started_time = datetime.datetime.now()\n    checkDBNewsComments()\n    ended_time = datetime.datetime.now()\n    fbdb.event_logs.insert(function=\'checkDBNewsComments\', started_time=started_time, ended_time=ended_time)\n    fbdb.commit()\n\n\n\n\n    return "OK"\n\ndef test():\n    result=convertNewsComms(\'812216578849978_812222405516062\')\n    return result\n    #return response.json(get_og_url(\'http://news.ltn.com.tw/news/opinion/breakingnews/1222089\'))\n\ndef test2():\n    # started_time = datetime.datetime.now()\n    newsbrt = NewsGroup(\'BRT\')\n    # newsbrt.updateAllSocialCount()\n    # ended_time = datetime.datetime.now()\n    # fbdb.event_logs.insert(function=\'updateAllSocialCount\', started_time=started_time, ended_time=ended_time)\n    # fbdb.commit()\n    started_time = datetime.datetime.now()\n    newsbrt.updateAllComments()\n    ended_time = datetime.datetime.now()\n    fbdb.event_logs.insert(function=\'updateAllComments\', started_time=started_time, ended_time=ended_time)\n    fbdb.commit()\n    #test5=getGroupUrlsSocialCount("http://udn.com/news/story/7548/677801,http://news.ltn.com.tw/news/local/paper/852017,http://www.chinatimes.com/newspapers/20150223000068-260210,http://www.appledaily.com.tw/realtimenews/article/new/20150112/540406/,http://www.chinatimes.com/realtimenews/20150223002434-260405")\n    #return str(test5)\n    #newsbrt = NewsGroup(\'BRT\')\n    #return newsbrt.url_list\n\n\ndef commentsByKeywords():\n    key = \'%\xe5\xa5\xb3\xe6\x80\xa7%\'\n    rows = fbdb(fbdb.news.summary.like(key)).select()\n    newslist = []\n    for row in rows:\n        if row["fid"] != None:\n            newslist.append(row["fid"])\n    rows = fbdb(fbdb.news_comments.news_fid.belongs(newslist)).select()\n    comments = []\n    likes = []\n    for row in rows:\n        if row["like_count"] > 10:\n            news = fbdb(fbdb.news.fid == row["news_fid"]).select().first()\n            comments.append(\'news_title:\' + row["news_fid"] + news["title"] + \' like_count:\' + str(\n                row["like_count"]) + \' message: \' + row["message"])\n            likes.append(row["like_count"])\n    likes, comments = [list(x) for x in zip(*sorted(zip(likes, comments), key=itemgetter(0), reverse=True))]\n\n    return dict(comments=comments)\n\n@auth.requires_login()\ndef Socialcount():\n    newsbrt = NewsGroup(\'BRT\')\n    newsbrt.updateAllSocialCount()\n\n    return \'OK\'\n\ndef fix_url():\n    rows = fbdb(fbdb.news_comments.news_fid == None).select()\n    for row in rows:\n        fid = row["fid"]\n        news_fid = fid.split(\'_\')[0]\n        #url = "http://" + urllib.quote(href.split("http://")[1])\n        #og = get_og_url(url)\n        #fid = og["fid"]\n        #fb_url = og["fb_url"]\n\n        row.update_record(news_fid=news_fid)\n\n@auth.requires_login()\ndef update_socialcount():\n    rows = fbdb(fbdb.news.fid <> None).select()\n    test=[]\n    for row in rows:\n        news_object = News(row.href)\n        test.append(news_object.fb_url)\n        news_object.updateSocialCount()\n        \n\n    return test\n\ndef fix_seg():\n    rows = fbdb(fbdb.news_comments.id <> \'\').select()\n    for row in rows:\n        message = row["message"]\n        segment = list(jieba.cut(message))\n        row.update_record(segment=segment)\n\n\ndef kimono_api(url, from_team):\n    response = urllib.urlopen(url)\n    data = json.load(response)\n    updatedtime = parser.parse(data["lastsuccess"]) + timedelta(hours=8)\n    news_array = data["results"]["collection1"]\n    for news in news_array:\n        date_time = news["datetime"]\n        if u\' \xe5\xb0\x8f\xe6\x99\x82\xe5\x89\x8d\' in date_time:\n            hours = int(date_time.strip(u\' \xe5\xb0\x8f\xe6\x99\x82\xe5\x89\x8d\'))\n            date_time = updatedtime - timedelta(hours=hours)\n        elif u\' \xe5\x88\x86\xe9\x90\x98\xe5\x89\x8d\' in date_time:\n            minutes = int(date_time.strip(u\' \xe5\x88\x86\xe9\x90\x98\xe5\x89\x8d\'))\n            date_time = updatedtime - timedelta(minutes=minutes)\n        else:\n            date_time = date_time.replace(u\'\xe5\xb9\xb4\', \'/\').replace(u\'\xe6\x9c\x88\', \'/\').strip(u\'\xe6\x97\xa5\')\n            date_time = parser.parse(date_time) + timedelta(hours=12)\n\n        source = news["source"]\n        summary = news["summary"]\n        title = news["title"]["text"]\n        href = news["title"]["href"]\n        photo = news["photo"]["src"] if \'src\' in news["photo"] else \'\'\n\n        related_news = []\n        related_news_date_time = []\n        related_news_source = []\n\n        # if isinstance(news["related_news_datetime"], list):\n        #     for item in news["related_news_datetime"]:\n        #         if u\' \xe5\xb0\x8f\xe6\x99\x82\xe5\x89\x8d\' in item:\n        #             hours = int(item.strip(u\' \xe5\xb0\x8f\xe6\x99\x82\xe5\x89\x8d\'))\n        #             item = updated_time - timedelta(hours=hours)\n        #             related_news_date_time.append(item)\n        #         elif u\' \xe5\x88\x86\xe9\x90\x98\xe5\x89\x8d\' in item:\n        #             minutes = int(item.strip(u\' \xe5\x88\x86\xe9\x90\x98\xe5\x89\x8d\'))\n        #             item = updated_time - timedelta(minutes=minutes)\n        #             related_news_date_time.append(item)\n        #         else:\n        #             item = item.replace(u\'\xe5\xb9\xb4\', \'/\').replace(u\'\xe6\x9c\x88\', \'/\').strip(u\'\xe6\x97\xa5\')\n        #             item = parser.parse(item) + timedelta(hours=12)\n        #             related_news_date_time.append(item)\n        #     related_news = news["related_news"]\n        #     related_news_source = news["related_news_source"]\n        # elif news["related_news_datetime"] == "":\n        #     pass\n        # else:\n        #     if u\' \xe5\xb0\x8f\xe6\x99\x82\xe5\x89\x8d\' in news["related_news_datetime"]:\n        #         hours = int(news["related_news_datetime"].strip(u\' \xe5\xb0\x8f\xe6\x99\x82\xe5\x89\x8d\'))\n        #         related_news_date_time2 = updated_time - timedelta(hours=hours)\n        #     elif u\' \xe5\x88\x86\xe9\x90\x98\xe5\x89\x8d\' in news["related_news_datetime"]:\n        #         minutes = int(news["related_news_datetime"].strip(u\' \xe5\x88\x86\xe9\x90\x98\xe5\x89\x8d\'))\n        #         related_news_date_time2 = updated_time - timedelta(minutes=minutes)\n        #     else:\n        #         related_news_date_time2 = news["related_news_datetime"].replace(u\'\xe5\xb9\xb4\', \'/\').replace(u\'\xe6\x9c\x88\', \'/\').strip(\n        #             u\'\xe6\x97\xa5\')\n        #         related_news_date_time2 = parser.parse(related_news_date_time2) + timedelta(hours=12)\n        #\n        #     related_news.append(news["related_news"])\n        #     related_news_date_time.append(related_news_date_time2)\n        #     related_news_source.append(news["related_news_source"])\n        if href != \'\':\n            #url = "http://" + urllib.quote(href.split("http://")[1])\n            href = href.strip()\n            url2 = href.split("://")[0] + "://" + urllib.quote(href.split("://")[1])\n            og = get_og_url(url2)\n            # fid = og["fid"]\n            # fb_url = og["fb_url"]\n            # created_time = og["created_time"]\n            # updated_time = og["updated_time"]\n            # share_count = og["share_count"]\n            # comment_count = og["comment_count"]\n            if og["title"] == None:\n                og["title"] = title\n            fbdb.news.update_or_insert(fbdb.news.href==href,from_team=from_team, href=href,summary=summary, source=source, date_time=date_time,  **og)\n            # fbdb.news.update_or_insert(fbdb.news.href==href, fb_url=fb_url, href=href, created_time=created_time,updated_time=updated_time, date_time=date_time, source=source, summary=summary, title=title, photo=photo, related_news=json.dumps(related_news),\n            #                  related_news_date_time=related_news_date_time,\n            #                  related_news_source=json.dumps(related_news_source), from_team=from_team,\n            #                  share_count=share_count, comment_count=comment_count)\n            fbdb.commit()\n\n                #getUrlSocialCount(fb_url)\n\n    return json.dumps(data)\n    #return "Success!"\n    #return dict(message="hello from newsAPI.py")\n\ndef checkDBNewsCommentsFromDate(from_date):\n    from_date = datetime.datetime.strptime(from_date, "%Y/%m/%d")\n    rows = fbdb(fbdb.news.date_time >= from_date).select()\n    for row in rows:\n        ids = row["fid"]\n        if ids != None:\n            #ids = "http://" + urllib.quote(ids.split("http://")[1])\n            from_team = row["from_team"]\n            news_source = row["source"]\n            getNewsComments(ids, from_team, news_source)\n\n@auth.requires_login()\ndef checkDBNewsComments():\n    rows = fbdb((fbdb.news.fid <> None) & (fbdb.news.comment_count > 0)).select()  #\n    for row in rows:\n        ids = row["fid"]\n        href = row["href"]\n        if ids != None:\n            #ids = "http://" + urllib.quote(ids.split("http://")[1])\n            from_team = row["from_team"]\n            news_source = row["source"]\n            getNewsComments(ids, from_team, news_source, href)\n\n    return "Ok"\n\ndef BestComments():\n    stoplist = list(delZhStr)\n    stoplist.extend(stopwords)\n    p_wordclouds = []\n    p_wordcloud = []\n    p_wordclouds2 = []\n\n    male_wordcloud = []\n    female_wordcloud = []\n\n    male_wordclouds = []\n    male_wordclouds_a = []\n    male_wordclouds_n = []\n    male_wordclouds_nr = []\n    male_wordclouds_v = []\n\n    female_wordclouds = []\n    female_wordclouds_a = []\n    female_wordclouds_n = []\n    female_wordclouds_nr = []\n    female_wordclouds_v = []\n\n    male_wordcloud_a = []\n    male_wordcloud_n = []\n    male_wordcloud_nr = []\n    male_wordcloud_v = []\n\n    female_wordcloud_a = []\n    female_wordcloud_n = []\n    female_wordcloud_nr = []\n    female_wordcloud_v = []\n\n    wordcloud_a = []\n    wordcloud_n = []\n    wordcloud_nr = []\n    wordcloud_v = []\n    wordcloud_a2 = []\n    wordcloud_n2 = []\n    wordcloud_nr2 = []\n    wordcloud_v2 = []\n\n    now = datetime.datetime.today()\n    q_time = now - timedelta(days=7)\n    #rows = fbdb((fbdb.news_comments.like_count >= 1)&(fbdb.news_comments.from_team==\'\xe9\x80\xa3\xe5\x8b\x9d\xe6\x96\x87\')&(fbdb.news_comments.created_time >=q_time)).select()\n    rows = fbdb(fbdb.news_comments.id <> \'\').select()\n    for row in rows:\n        #segments = list(set(row[\'segment\']))\n        segments = pseg.cut(row[\'message\'])\n        count = row["like_count"]  #// 10\n        #count= 1\n        wordclouds_a = []\n        wordclouds_n = []\n        wordclouds_nr = []\n        wordclouds_v = []\n        for j in range(0, count):\n            for i in segments:\n                if (i.word not in stoplist):\n                    p_wordclouds2.append(i.word)\n                if (re.search("^a", i.flag) <> None) & (i.word not in stoplist):\n                    wordclouds_a.append(i.word)\n                elif (i.flag == \'n\') & (i.word not in stoplist):\n                    wordclouds_n.append(i.word)\n                elif (i.flag == \'nr\') & (i.word not in stoplist):\n                    wordclouds_nr.append(i.word)\n                elif (re.search("^v", i.flag) <> None) & (i.word not in stoplist):\n                    wordclouds_v.append(i.word)\n        p_wordclouds.extend(p_wordclouds2)\n        userid = row["from_id"]\n        user = fbdb(fbdb.people.uid == userid).select().first()\n        sex = user[\'gender\'] if user else None\n        #likes = row[\'likes\'] if ((\'likes\' in row) & (row[\'likes\'] != None) & (row[\'likes\'] != {})) else []\n        #for like in likes:\n        wordcloud_a2.extend(list(set(wordclouds_a)))\n        wordcloud_n2.extend(list(set(wordclouds_n)))\n        wordcloud_nr2.extend(list(set(wordclouds_nr)))\n        wordcloud_v2.extend(list(set(wordclouds_v)))\n\n        if sex == \'female\':\n            female_wordclouds.extend(list(set(p_wordclouds2)))\n            female_wordclouds_a.extend(list(set(wordclouds_a)))\n            female_wordclouds_n.extend(list(set(wordclouds_n)))\n            female_wordclouds_nr.extend(list(set(wordclouds_nr)))\n            female_wordclouds_v.extend(list(set(wordclouds_v)))\n        elif sex == \'male\':\n            male_wordclouds.extend(list(set(p_wordclouds2)))\n            male_wordclouds_a.extend(list(set(wordclouds_a)))\n            male_wordclouds_n.extend(list(set(wordclouds_n)))\n            male_wordclouds_nr.extend(list(set(wordclouds_nr)))\n            male_wordclouds_v.extend(list(set(wordclouds_v)))\n        else:\n            pass\n    for item in Counter(wordcloud_a2).most_common(150):\n        #s = SnowNLP(item[0]) , \'tag\': s.tags\n        wordcloud_a.append({\'name\': item[0], \'size\': item[1]})\n    for item in Counter(wordcloud_n2).most_common(150):\n        #s = SnowNLP(item[0]) , \'tag\': s.tags\n        wordcloud_n.append({\'name\': item[0], \'size\': item[1]})\n    for item in Counter(wordcloud_nr2).most_common(150):\n        #s = SnowNLP(item[0]) , \'tag\': s.tags\n        wordcloud_nr.append({\'name\': item[0], \'size\': item[1]})\n    for item in Counter(wordcloud_v2).most_common(150):\n        #s = SnowNLP(item[0]) , \'tag\': s.tags\n        wordcloud_v.append({\'name\': item[0], \'size\': item[1]})\n\n    for item in Counter(female_wordclouds).most_common(150):\n        #s = SnowNLP(item[0]) , \'tag\': s.tags\n        female_wordcloud.append({\'name\': item[0], \'size\': item[1]})\n    for item in Counter(male_wordclouds).most_common(150):\n        #s = SnowNLP(item[0]) , \'tag\': s.tags\n        male_wordcloud.append({\'name\': item[0], \'size\': item[1]})\n\n    list_a_female100 = []\n    list_n_female100 = []\n    list_nr_female100 = []\n    list_v_female100 = []\n\n    for item in Counter(female_wordclouds_a).most_common(100):\n        #s = SnowNLP(item[0]) , \'tag\': s.tags\n        female_wordcloud_a.append({\'name\': item[0], \'size\': item[1]})\n        list_a_female100.append(item[0])\n\n    for item in Counter(female_wordclouds_n).most_common(100):\n        #s = SnowNLP(item[0]) , \'tag\': s.tags\n        female_wordcloud_n.append({\'name\': item[0], \'size\': item[1]})\n        list_n_female100.append(item[0])\n\n    for item in Counter(female_wordclouds_nr).most_common(100):\n        #s = SnowNLP(item[0]) , \'tag\': s.tags\n        female_wordcloud_nr.append({\'name\': item[0], \'size\': item[1]})\n        list_nr_female100.append(item[0])\n\n    for item in Counter(female_wordclouds_v).most_common(100):\n        #s = SnowNLP(item[0]) , \'tag\': s.tags\n        female_wordcloud_v.append({\'name\': item[0], \'size\': item[1]})\n        list_v_female100.append(item[0])\n\n    list_a_male100 = []\n    list_n_male100 = []\n    list_nr_male100 = []\n    list_v_male100 = []\n\n    for item in Counter(male_wordclouds_a).most_common(100):\n        #s = SnowNLP(item[0]) , \'tag\': s.tags\n        male_wordcloud_a.append({\'name\': item[0], \'size\': item[1]})\n        list_a_male100.append(item[0])\n\n    for item in Counter(male_wordclouds_n).most_common(100):\n        #s = SnowNLP(item[0]) , \'tag\': s.tags\n        male_wordcloud_n.append({\'name\': item[0], \'size\': item[1]})\n        list_n_male100.append(item[0])\n\n    for item in Counter(male_wordclouds_nr).most_common(100):\n        #s = SnowNLP(item[0]) , \'tag\': s.tags\n        male_wordcloud_nr.append({\'name\': item[0], \'size\': item[1]})\n        list_nr_male100.append(item[0])\n\n    for item in Counter(male_wordclouds_v).most_common(100):\n        #s = SnowNLP(item[0]) , \'tag\': s.tags\n        male_wordcloud_v.append({\'name\': item[0], \'size\': item[1]})\n        list_v_male100.append(item[0])\n\n    female_wordcloud_a_special = []\n    female_wordcloud_n_special = []\n    female_wordcloud_nr_special = []\n    female_wordcloud_v_special = []\n\n    for item in Counter(female_wordclouds_a).most_common(100):\n        if item[0] not in list_a_male100:\n            female_wordcloud_a_special.append({\'name\': item[0], \'size\': item[1]})\n\n    for item in Counter(female_wordclouds_n).most_common(100):\n        if item[0] not in list_n_male100:\n            female_wordcloud_n_special.append({\'name\': item[0], \'size\': item[1]})\n\n    for item in Counter(female_wordclouds_nr).most_common(100):\n        if item[0] not in list_nr_male100:\n            female_wordcloud_nr_special.append({\'name\': item[0], \'size\': item[1]})\n\n    for item in Counter(female_wordclouds_v).most_common(100):\n        if item[0] not in list_v_male100:\n            female_wordcloud_v_special.append({\'name\': item[0], \'size\': item[1]})\n\n    male_wordcloud_a_special = []\n    male_wordcloud_n_special = []\n    male_wordcloud_nr_special = []\n    male_wordcloud_v_special = []\n\n    for item in Counter(male_wordclouds_a).most_common(100):\n        if item[0] not in list_a_female100:\n            male_wordcloud_a_special.append({\'name\': item[0], \'size\': item[1]})\n\n    for item in Counter(male_wordclouds_n).most_common(100):\n        if item[0] not in list_n_female100:\n            male_wordcloud_n_special.append({\'name\': item[0], \'size\': item[1]})\n\n    for item in Counter(male_wordclouds_nr).most_common(100):\n        if item[0] not in list_nr_female100:\n            male_wordcloud_nr_special.append({\'name\': item[0], \'size\': item[1]})\n\n    for item in Counter(male_wordclouds_v).most_common(100):\n        if item[0] not in list_v_female100:\n            male_wordcloud_v_special.append({\'name\': item[0], \'size\': item[1]})\n\n    flare = {}\n    flare = {"name": "flare", "children": [{"name": "female_wordcloud",\n                                            "children": [{"name": "adj", "children": female_wordcloud_a_special},\n                                                         {"name": "v", "children": female_wordcloud_v_special},\n                                                         {"name": "nr", "children": female_wordcloud_nr_special},\n                                                         {"name": "n", "children": female_wordcloud_n_special}]}]}\n\n    f = open(os.path.join(request.folder,\'private\',\'d3\',\'BestComments_female.json\'), \'w+\')\n    f.write(json.dumps(flare, sort_keys=False, separators=(\',\', \':\'), indent=4))\n    f.close()\n    flare = {}\n    flare = {"name": "flare", "children": [{"name": "male_wordcloud",\n                                            "children": [{"name": "adj", "children": male_wordcloud_a_special},\n                                                         {"name": "v", "children": male_wordcloud_v_special},\n                                                         {"name": "nr", "children": male_wordcloud_nr_special},\n                                                         {"name": "n", "children": male_wordcloud_n_special}]}]}\n    f = open(os.path.join(request.folder,\'private\',\'d3\',\'BestComments_male.json\'), \'w+\')\n    f.write(json.dumps(flare, sort_keys=False, separators=(\',\', \':\'), indent=4))\n    f.close()\n\n    flare = {}\n    flare = {"name": "flare", "children": [{"name": "wordcloud", "children": [{"name": "adj", "children": wordcloud_a},\n                                                                              {"name": "v", "children": wordcloud_v},\n                                                                              {"name": "nr", "children": wordcloud_nr},\n                                                                              {"name": "n", "children": wordcloud_n}]}]}\n    f = open(os.path.join(request.folder,\'private\',\'d3\',\'BestComments.json\'), \'w+\')\n    f.write(json.dumps(flare, sort_keys=False, separators=(\',\', \':\'), indent=4))\n    f.close()\n\n    f = codecs.open(os.path.join(request.folder,\'private\',\'d3\',\'wordcloud.txt\'), \'w+\', \'utf-8\')\n    for item in list(set(p_wordclouds)):\n        f.write(item + \'\\n\')\n    f.close()\n\n    return dict(message="OK")\n    #return len(rows)\n    #return json.dumps(female_wordclouds_nr)\n\ndef ConvertComments():\n    rows = fbdb(fbdb.news_comments.comments <> None).select()  #\n    for row in rows:\n        convertNewsComms(row["fid"])\n\ndef delay():\n    time.sleep(1.5)\n\nresponse._vars=response._caller(test2)\n'
p7
sS'snapshot'
p8
(dp9
S'exception'
p10
(dp11
S'__getslice__'
p12
S"<method-wrapper '__getslice__' of exceptions.IOError object>"
p13
sS'__str__'
p14
S"<method-wrapper '__str__' of exceptions.IOError object>"
p15
sS'__reduce__'
p16
S'<built-in method __reduce__ of exceptions.IOError object>'
p17
sS'__dict__'
p18
S'{}'
p19
sS'__sizeof__'
p20
S'<built-in method __sizeof__ of exceptions.IOError object>'
p21
sS'__init__'
p22
S"<method-wrapper '__init__' of exceptions.IOError object>"
p23
sS'__setattr__'
p24
S"<method-wrapper '__setattr__' of exceptions.IOError object>"
p25
sS'__reduce_ex__'
p26
S'<built-in method __reduce_ex__ of exceptions.IOError object>'
p27
sS'__new__'
p28
S'<built-in method __new__ of type object>'
p29
sS'errno'
p30
S'5'
sS'__format__'
p31
S'<built-in method __format__ of exceptions.IOError object>'
p32
sS'__class__'
p33
S"<type 'exceptions.IOError'>"
p34
sS'filename'
p35
S'None'
p36
sS'__doc__'
p37
S"'I/O operation failed.'"
p38
sS'__getitem__'
p39
S"<method-wrapper '__getitem__' of exceptions.IOError object>"
p40
sS'__setstate__'
p41
S'<built-in method __setstate__ of exceptions.IOError object>'
p42
sS'__getattribute__'
p43
S"<method-wrapper '__getattribute__' of exceptions.IOError object>"
p44
sS'args'
p45
S"(5, 'Input/output error')"
p46
sS'__subclasshook__'
p47
S'<built-in method __subclasshook__ of type object>'
p48
sS'__unicode__'
p49
S'<built-in method __unicode__ of exceptions.IOError object>'
p50
sS'strerror'
p51
S"'Input/output error'"
p52
sS'__delattr__'
p53
S"<method-wrapper '__delattr__' of exceptions.IOError object>"
p54
sS'__repr__'
p55
S"<method-wrapper '__repr__' of exceptions.IOError object>"
p56
sS'__hash__'
p57
S"<method-wrapper '__hash__' of exceptions.IOError object>"
p58
ssS'evalue'
p59
S'[Errno 5] Input/output error'
p60
sS'request'
p61
cgluon.html
XML_unpickle
p62
(S's\x0ch\x00\x00<div><table><tr><td style="font-weight:bold;vertical-align:top;">ajax</td><td style="vertical-align:top;">:</td><td><div>False</div></td></tr><tr><td style="font-weight:bold;vertical-align:top;">application</td><td style="vertical-align:top;">:</td><td><div>fbbrt</div></td></tr><tr><td style="font-weight:bold;vertical-align:top;">args</td><td style="vertical-align:top;">:</td><td><div><table></table></div></td></tr><tr><td style="font-weight:bold;vertical-align:top;">cid</td><td style="vertical-align:top;">:</td><td><div>None</div></td></tr><tr><td style="font-weight:bold;vertical-align:top;">client</td><td style="vertical-align:top;">:</td><td><div>127.0.0.1</div></td></tr><tr><td style="font-weight:bold;vertical-align:top;">controller</td><td style="vertical-align:top;">:</td><td><div>newsAPI</div></td></tr><tr><td style="font-weight:bold;vertical-align:top;">cookies</td><td style="vertical-align:top;">:</td><td><div><table><tr><td style="font-weight:bold;vertical-align:top;">session_id_admin</td><td style="vertical-align:top;">:</td><td><div>127.0.0.1-59231e73-010a-440e-89ed-903d6002e790<table><tr><td style="font-weight:bold;vertical-align:top;">comment</td><td style="vertical-align:top;">:</td><td><div></div></td></tr><tr><td style="font-weight:bold;vertical-align:top;">domain</td><td style="vertical-align:top;">:</td><td><div></div></td></tr><tr><td style="font-weight:bold;vertical-align:top;">expires</td><td style="vertical-align:top;">:</td><td><div></div></td></tr><tr><td style="font-weight:bold;vertical-align:top;">httponly</td><td style="vertical-align:top;">:</td><td><div></div></td></tr><tr><td style="font-weight:bold;vertical-align:top;">max-age</td><td style="vertical-align:top;">:</td><td><div></div></td></tr><tr><td style="font-weight:bold;vertical-align:top;">path</td><td style="vertical-align:top;">:</td><td><div></div></td></tr><tr><td style="font-weight:bold;vertical-align:top;">secure</td><td style="vertical-align:top;">:</td><td><div></div></td></tr><tr><td style="font-weight:bold;vertical-align:top;">version</td><td style="vertical-align:top;">:</td><td><div></div></td></tr></table></div></td></tr><tr><td style="font-weight:bold;vertical-align:top;">session_id_brt</td><td style="vertical-align:top;">:</td><td><div>127.0.0.1-4e84140c-e4fd-4346-8cc0-15f56105c469<table><tr><td style="font-weight:bold;vertical-align:top;">comment</td><td style="vertical-align:top;">:</td><td><div></div></td></tr><tr><td style="font-weight:bold;vertical-align:top;">domain</td><td style="vertical-align:top;">:</td><td><div></div></td></tr><tr><td style="font-weight:bold;vertical-align:top;">expires</td><td style="vertical-align:top;">:</td><td><div></div></td></tr><tr><td style="font-weight:bold;vertical-align:top;">httponly</td><td style="vertical-align:top;">:</td><td><div></div></td></tr><tr><td style="font-weight:bold;vertical-align:top;">max-age</td><td style="vertical-align:top;">:</td><td><div></div></td></tr><tr><td style="font-weight:bold;vertical-align:top;">path</td><td style="vertical-align:top;">:</td><td><div></div></td></tr><tr><td style="font-weight:bold;vertical-align:top;">secure</td><td style="vertical-align:top;">:</td><td><div></div></td></tr><tr><td style="font-weight:bold;vertical-align:top;">version</td><td style="vertical-align:top;">:</td><td><div></div></td></tr></table></div></td></tr><tr><td style="font-weight:bold;vertical-align:top;">session_id_fbbrt</td><td style="vertical-align:top;">:</td><td><div>127.0.0.1-c4916731-eb22-42de-8715-af19dd7bd638<table><tr><td style="font-weight:bold;vertical-align:top;">comment</td><td style="vertical-align:top;">:</td><td><div></div></td></tr><tr><td style="font-weight:bold;vertical-align:top;">domain</td><td style="vertical-align:top;">:</td><td><div></div></td></tr><tr><td style="font-weight:bold;vertical-align:top;">expires</td><td style="vertical-align:top;">:</td><td><div></div></td></tr><tr><td style="font-weight:bold;vertical-align:top;">httponly</td><td style="vertical-align:top;">:</td><td><div></div></td></tr><tr><td style="font-weight:bold;vertical-align:top;">max-age</td><td style="vertical-align:top;">:</td><td><div></div></td></tr><tr><td style="font-weight:bold;vertical-align:top;">path</td><td style="vertical-align:top;">:</td><td><div></div></td></tr><tr><td style="font-weight:bold;vertical-align:top;">secure</td><td style="vertical-align:top;">:</td><td><div></div></td></tr><tr><td style="font-weight:bold;vertical-align:top;">version</td><td style="vertical-align:top;">:</td><td><div></div></td></tr></table></div></td></tr><tr><td style="font-weight:bold;vertical-align:top;">session_id_fsr</td><td style="vertical-align:top;">:</td><td><div>127.0.0.1-6d8b6df8-37f9-42fc-b03f-667ec15a1f28<table><tr><td style="font-weight:bold;vertical-align:top;">comment</td><td style="vertical-align:top;">:</td><td><div></div></td></tr><tr><td style="font-weight:bold;vertical-align:top;">domain</td><td style="vertical-align:top;">:</td><td><div></div></td></tr><tr><td style="font-weight:bold;vertical-align:top;">expires</td><td style="vertical-align:top;">:</td><td><div></div></td></tr><tr><td style="font-weight:bold;vertical-align:top;">httponly</td><td style="vertical-align:top;">:</td><td><div></div></td></tr><tr><td style="font-weight:bold;vertical-align:top;">max-age</td><td style="vertical-align:top;">:</td><td><div></div></td></tr><tr><td style="font-weight:bold;vertical-align:top;">path</td><td style="vertical-align:top;">:</td><td><div></div></td></tr><tr><td style="font-weight:bold;vertical-align:top;">secure</td><td style="vertical-align:top;">:</td><td><div></div></td></tr><tr><td style="font-weight:bold;vertical-align:top;">version</td><td style="vertical-align:top;">:</td><td><div></div></td></tr></table></div></td></tr><tr><td style="font-weight:bold;vertical-align:top;">session_id_welcome</td><td style="vertical-align:top;">:</td><td><div>127.0.0.1-4791cf9a-6bdb-4e95-93f7-32f2ff560fde<table><tr><td style="font-weight:bold;vertical-align:top;">comment</td><td style="vertical-align:top;">:</td><td><div></div></td></tr><tr><td style="font-weight:bold;vertical-align:top;">domain</td><td style="vertical-align:top;">:</td><td><div></div></td></tr><tr><td style="font-weight:bold;vertical-align:top;">expires</td><td style="vertical-align:top;">:</td><td><div></div></td></tr><tr><td style="font-weight:bold;vertical-align:top;">httponly</td><td style="vertical-align:top;">:</td><td><div></div></td></tr><tr><td style="font-weight:bold;vertical-align:top;">max-age</td><td style="vertical-align:top;">:</td><td><div></div></td></tr><tr><td style="font-weight:bold;vertical-align:top;">path</td><td style="vertical-align:top;">:</td><td><div></div></td></tr><tr><td style="font-weight:bold;vertical-align:top;">secure</td><td style="vertical-align:top;">:</td><td><div></div></td></tr><tr><td style="font-weight:bold;vertical-align:top;">version</td><td style="vertical-align:top;">:</td><td><div></div></td></tr></table></div></td></tr></table></div></td></tr><tr><td style="font-weight:bold;vertical-align:top;">env</td><td style="vertical-align:top;">:</td><td><div><table><tr><td style="font-weight:bold;vertical-align:top;">HTTP_ACCEPT</td><td style="vertical-align:top;">:</td><td><div>text/html,application/xhtml+xml,application/xml;q=0.9,image/webp,*/*;q=0.8</div></td></tr><tr><td style="font-weight:bold;vertical-align:top;">HTTP_ACCEPT_ENCODING</td><td style="vertical-align:top;">:</td><td><div>gzip, deflate, sdch</div></td></tr><tr><td style="font-weight:bold;vertical-align:top;">HTTP_ACCEPT_LANGUAGE</td><td style="vertical-align:top;">:</td><td><div>zh-TW,zh;q=0.8,en-US;q=0.6,en;q=0.4</div></td></tr><tr><td style="font-weight:bold;vertical-align:top;">HTTP_CACHE_CONTROL</td><td style="vertical-align:top;">:</td><td><div>max-age=0</div></td></tr><tr><td style="font-weight:bold;vertical-align:top;">HTTP_CONNECTION</td><td style="vertical-align:top;">:</td><td><div>keep-alive</div></td></tr><tr><td style="font-weight:bold;vertical-align:top;">HTTP_COOKIE</td><td style="vertical-align:top;">:</td><td><div>session_id_fsr=127.0.0.1-6d8b6df8-37f9-42fc-b03f-667ec15a1f28; session_id_brt=127.0.0.1-4e84140c-e4fd-4346-8cc0-15f56105c469; session_id_welcome=127.0.0.1-4791cf9a-6bdb-4e95-93f7-32f2ff560fde; session_id_fbbrt=127.0.0.1-c4916731-eb22-42de-8715-af19dd7bd638; session_id_admin=127.0.0.1-59231e73-010a-440e-89ed-903d6002e790</div></td></tr><tr><td style="font-weight:bold;vertical-align:top;">HTTP_HOST</td><td style="vertical-align:top;">:</td><td><div>localhost:8088</div></td></tr><tr><td style="font-weight:bold;vertical-align:top;">HTTP_USER_AGENT</td><td style="vertical-align:top;">:</td><td><div>Mozilla/5.0 (Macintosh; Intel Mac OS X 10_10_2) AppleWebKit/537.36 (KHTML, like Gecko) Chrome/41.0.2272.76 Safari/537.36</div></td></tr><tr><td style="font-weight:bold;vertical-align:top;">PATH_INFO</td><td style="vertical-align:top;">:</td><td><div>/fbbrt/newsAPI/test2</div></td></tr><tr><td style="font-weight:bold;vertical-align:top;">QUERY_STRING</td><td style="vertical-align:top;">:</td><td><div></div></td></tr><tr><td style="font-weight:bold;vertical-align:top;">REMOTE_ADDR</td><td style="vertical-align:top;">:</td><td><div>127.0.0.1</div></td></tr><tr><td style="font-weight:bold;vertical-align:top;">REMOTE_PORT</td><td style="vertical-align:top;">:</td><td><div>52085</div></td></tr><tr><td style="font-weight:bold;vertical-align:top;">REQUEST_METHOD</td><td style="vertical-align:top;">:</td><td><div>GET</div></td></tr><tr><td style="font-weight:bold;vertical-align:top;">SCRIPT_NAME</td><td style="vertical-align:top;">:</td><td><div></div></td></tr><tr><td style="font-weight:bold;vertical-align:top;">SERVER_NAME</td><td style="vertical-align:top;">:</td><td><div>maclogair.local</div></td></tr><tr><td style="font-weight:bold;vertical-align:top;">SERVER_PORT</td><td style="vertical-align:top;">:</td><td><div>8088</div></td></tr><tr><td style="font-weight:bold;vertical-align:top;">SERVER_PROTOCOL</td><td style="vertical-align:top;">:</td><td><div>HTTP/1.1</div></td></tr><tr><td style="font-weight:bold;vertical-align:top;">SERVER_SOFTWARE</td><td style="vertical-align:top;">:</td><td><div>Rocket 1.2.6</div></td></tr><tr><td style="font-weight:bold;vertical-align:top;">app_folders</td><td style="vertical-align:top;">:</td><td><div>set([&#x27;/Users/logyuan/Documents/web2py/applications/fbbrt/&#x27;, &#x27;/Users/logyuan/Documents/web2py/applications/admin/&#x27;, &#x27;/Users/logyuan/Documents/web2py/applications/welcome/&#x27;])</div></td></tr><tr><td style="font-weight:bold;vertical-align:top;">applications_parent</td><td style="vertical-align:top;">:</td><td><div>/Users/logyuan/Documents/web2py</div></td></tr><tr><td style="font-weight:bold;vertical-align:top;">cmd_args</td><td style="vertical-align:top;">:</td><td><div><table></table></div></td></tr><tr><td style="font-weight:bold;vertical-align:top;">cmd_options</td><td style="vertical-align:top;">:</td><td><div>&lt;Values at 0x106f864d0: {&#x27;verbose&#x27;: False, &#x27;ip&#x27;: &#x27;127.0.0.1&#x27;, &#x27;debuglevel&#x27;: 30, &#x27;with_scheduler&#x27;: False, &#x27;ips&#x27;: [&#x27;192.168.2.1&#x27;, &#x27;fe80::60c:ceff:fee3:df4a%en0&#x27;, &#x27;10.37.129.2&#x27;, &#x27;fe80::40c:ceff:fe3e:b700%bridge0&#x27;, &#x27;10.211.55.2&#x27;, &#x27;192.168.1.111&#x27;], &#x27;shutdown_timeout&#x27;: 5, &#x27;taskbar&#x27;: False, &#x27;with_coverage&#x27;: False, &#x27;port&#x27;: 8000, &#x27;maxthreads&#x27;: None, &#x27;softcron&#x27;: False, &#x27;server_name&#x27;: &#x27;maclogair.local&#x27;, &#x27;bpython&#x27;: False, &#x27;nogui&#x27;: False, &#x27;pid_filename&#x27;: &#x27;httpserver.pid&#x27;, &#x27;extcron&#x27;: False, &#x27;runcron&#x27;: False, &#x27;run_system_tests&#x27;: False, &#x27;test&#x27;: None, &#x27;folder&#x27;: &#x27;/Users/logyuan/Documents/web2py&#x27;, &#x27;config&#x27;: &#x27;&#x27;, &#x27;minthreads&#x27;: None, &#x27;shell&#x27;: None, &#x27;run&#x27;: &#x27;&#x27;, &#x27;log_filename&#x27;: &#x27;httpserver.log&#x27;, &#x27;profiler_dir&#x27;: None, &#x27;args&#x27;: [&#x27;&#x27;], &#x27;socket_timeout&#x27;: 5, &#x27;ssl_ca_certificate&#x27;: None, &#x27;scheduler&#x27;: None, &#x27;interfaces&#x27;: None, &#x27;ssl_private_key&#x27;: &#x27;&#x27;, &#x27;scheduler_groups&#x27;: None, &#x27;password&#x27;: &#x27;&lt;ask&gt;&#x27;, &#x27;request_queue_size&#x27;: 5, &#x27;ssl_certificate&#x27;: &#x27;&#x27;, &#x27;cronjob&#x27;: False, &#x27;numthreads&#x27;: None, &#x27;quiet&#x27;: False, &#x27;import_models&#x27;: False, &#x27;timeout&#x27;: 10, &#x27;plain&#x27;: False, &#x27;nobanner&#x27;: False}&gt;</div></td></tr><tr><td style="font-weight:bold;vertical-align:top;">db_sessions</td><td style="vertical-align:top;">:</td><td><div>set([])</div></td></tr><tr><td style="font-weight:bold;vertical-align:top;">debugging</td><td style="vertical-align:top;">:</td><td><div>False</div></td></tr><tr><td style="font-weight:bold;vertical-align:top;">gluon_parent</td><td style="vertical-align:top;">:</td><td><div>/Users/logyuan/Documents/web2py</div></td></tr><tr><td style="font-weight:bold;vertical-align:top;">http_accept</td><td style="vertical-align:top;">:</td><td><div>text/html,application/xhtml+xml,application/xml;q=0.9,image/webp,*/*;q=0.8</div></td></tr><tr><td style="font-weight:bold;vertical-align:top;">http_accept_encoding</td><td style="vertical-align:top;">:</td><td><div>gzip, deflate, sdch</div></td></tr><tr><td style="font-weight:bold;vertical-align:top;">http_accept_language</td><td style="vertical-align:top;">:</td><td><div>zh-TW,zh;q=0.8,en-US;q=0.6,en;q=0.4</div></td></tr><tr><td style="font-weight:bold;vertical-align:top;">http_cache_control</td><td style="vertical-align:top;">:</td><td><div>max-age=0</div></td></tr><tr><td style="font-weight:bold;vertical-align:top;">http_connection</td><td style="vertical-align:top;">:</td><td><div>keep-alive</div></td></tr><tr><td style="font-weight:bold;vertical-align:top;">http_cookie</td><td style="vertical-align:top;">:</td><td><div>session_id_fsr=127.0.0.1-6d8b6df8-37f9-42fc-b03f-667ec15a1f28; session_id_brt=127.0.0.1-4e84140c-e4fd-4346-8cc0-15f56105c469; session_id_welcome=127.0.0.1-4791cf9a-6bdb-4e95-93f7-32f2ff560fde; session_id_fbbrt=127.0.0.1-c4916731-eb22-42de-8715-af19dd7bd638; session_id_admin=127.0.0.1-59231e73-010a-440e-89ed-903d6002e790</div></td></tr><tr><td style="font-weight:bold;vertical-align:top;">http_host</td><td style="vertical-align:top;">:</td><td><div>localhost:8088</div></td></tr><tr><td style="font-weight:bold;vertical-align:top;">http_user_agent</td><td style="vertical-align:top;">:</td><td><div>Mozilla/5.0 (Macintosh; Intel Mac OS X 10_10_2) AppleWebKit/537.36 (KHTML, like Gecko) Chrome/41.0.2272.76 Safari/537.36</div></td></tr><tr><td style="font-weight:bold;vertical-align:top;">is_jython</td><td style="vertical-align:top;">:</td><td><div>False</div></td></tr><tr><td style="font-weight:bold;vertical-align:top;">is_pypy</td><td style="vertical-align:top;">:</td><td><div>False</div></td></tr><tr><td style="font-weight:bold;vertical-align:top;">is_source</td><td style="vertical-align:top;">:</td><td><div>True</div></td></tr><tr><td style="font-weight:bold;vertical-align:top;">local_hosts</td><td style="vertical-align:top;">:</td><td><div><table><tr><td><div>192.168.2.1</div></td></tr><tr><td><div>fe80::60c:ceff:fee3:df4a%en0</div></td></tr><tr><td><div>fe80::40c:ceff:fe3e:b700%bridge0</div></td></tr><tr><td><div>10.37.129.2</div></td></tr><tr><td><div>::ffff:127.0.0.1</div></td></tr><tr><td><div>::1</div></td></tr><tr><td><div>10.211.55.2</div></td></tr><tr><td><div>192.168.1.111</div></td></tr><tr><td><div>maclogair.local</div></td></tr><tr><td><div>127.0.0.1</div></td></tr></table></div></td></tr><tr><td style="font-weight:bold;vertical-align:top;">path_info</td><td style="vertical-align:top;">:</td><td><div>/fbbrt/newsAPI/test2</div></td></tr><tr><td style="font-weight:bold;vertical-align:top;">query_string</td><td style="vertical-align:top;">:</td><td><div></div></td></tr><tr><td style="font-weight:bold;vertical-align:top;">remote_addr</td><td style="vertical-align:top;">:</td><td><div>127.0.0.1</div></td></tr><tr><td style="font-weight:bold;vertical-align:top;">remote_port</td><td style="vertical-align:top;">:</td><td><div>52085</div></td></tr><tr><td style="font-weight:bold;vertical-align:top;">request_method</td><td style="vertical-align:top;">:</td><td><div>GET</div></td></tr><tr><td style="font-weight:bold;vertical-align:top;">request_uri</td><td style="vertical-align:top;">:</td><td><div>/fbbrt/newsAPI/test2</div></td></tr><tr><td style="font-weight:bold;vertical-align:top;">script_name</td><td style="vertical-align:top;">:</td><td><div></div></td></tr><tr><td style="font-weight:bold;vertical-align:top;">server_name</td><td style="vertical-align:top;">:</td><td><div>maclogair.local</div></td></tr><tr><td style="font-weight:bold;vertical-align:top;">server_port</td><td style="vertical-align:top;">:</td><td><div>8088</div></td></tr><tr><td style="font-weight:bold;vertical-align:top;">server_protocol</td><td style="vertical-align:top;">:</td><td><div>HTTP/1.1</div></td></tr><tr><td style="font-weight:bold;vertical-align:top;">server_software</td><td style="vertical-align:top;">:</td><td><div>Rocket 1.2.6</div></td></tr><tr><td style="font-weight:bold;vertical-align:top;">web2py_path</td><td style="vertical-align:top;">:</td><td><div>/Users/logyuan/Documents/web2py</div></td></tr><tr><td style="font-weight:bold;vertical-align:top;">web2py_version</td><td style="vertical-align:top;">:</td><td><div>2.9.5-stable+timestamp.2014.03.20.22.57.13</div></td></tr><tr><td style="font-weight:bold;vertical-align:top;">wsgi.errors</td><td style="vertical-align:top;">:</td><td><div>&lt;open file &#x27;&lt;stderr&gt;&#x27;, mode &#x27;w&#x27; at 0x105b9d1e0&gt;</div></td></tr><tr><td style="font-weight:bold;vertical-align:top;">wsgi.file_wrapper</td><td style="vertical-align:top;">:</td><td><div>&lt;class wsgiref.util.FileWrapper at 0x106f0f870&gt;</div></td></tr><tr><td style="font-weight:bold;vertical-align:top;">wsgi.input</td><td style="vertical-align:top;">:</td><td><div>&lt;socket._fileobject object at 0x10dcfbcd0&gt;</div></td></tr><tr><td style="font-weight:bold;vertical-align:top;">wsgi.multiprocess</td><td style="vertical-align:top;">:</td><td><div>False</div></td></tr><tr><td style="font-weight:bold;vertical-align:top;">wsgi.multithread</td><td style="vertical-align:top;">:</td><td><div>True</div></td></tr><tr><td style="font-weight:bold;vertical-align:top;">wsgi.run_once</td><td style="vertical-align:top;">:</td><td><div>False</div></td></tr><tr><td style="font-weight:bold;vertical-align:top;">wsgi.url_scheme</td><td style="vertical-align:top;">:</td><td><div>http</div></td></tr><tr><td style="font-weight:bold;vertical-align:top;">wsgi.version</td><td style="vertical-align:top;">:</td><td><div><table><tr><td><div>1</div></td></tr><tr><td><div>0</div></td></tr></table></div></td></tr><tr><td style="font-weight:bold;vertical-align:top;">wsgi_errors</td><td style="vertical-align:top;">:</td><td><div>&lt;open file &#x27;&lt;stderr&gt;&#x27;, mode &#x27;w&#x27; at 0x105b9d1e0&gt;</div></td></tr><tr><td style="font-weight:bold;vertical-align:top;">wsgi_file_wrapper</td><td style="vertical-align:top;">:</td><td><div>&lt;class wsgiref.util.FileWrapper at 0x106f0f870&gt;</div></td></tr><tr><td style="font-weight:bold;vertical-align:top;">wsgi_input</td><td style="vertical-align:top;">:</td><td><div>&lt;socket._fileobject object at 0x10dcfbcd0&gt;</div></td></tr><tr><td style="font-weight:bold;vertical-align:top;">wsgi_multiprocess</td><td style="vertical-align:top;">:</td><td><div>False</div></td></tr><tr><td style="font-weight:bold;vertical-align:top;">wsgi_multithread</td><td style="vertical-align:top;">:</td><td><div>True</div></td></tr><tr><td style="font-weight:bold;vertical-align:top;">wsgi_run_once</td><td style="vertical-align:top;">:</td><td><div>False</div></td></tr><tr><td style="font-weight:bold;vertical-align:top;">wsgi_url_scheme</td><td style="vertical-align:top;">:</td><td><div>http</div></td></tr><tr><td style="font-weight:bold;vertical-align:top;">wsgi_version</td><td style="vertical-align:top;">:</td><td><div><table><tr><td><div>1</div></td></tr><tr><td><div>0</div></td></tr></table></div></td></tr></table></div></td></tr><tr><td style="font-weight:bold;vertical-align:top;">extension</td><td style="vertical-align:top;">:</td><td><div>html</div></td></tr><tr><td style="font-weight:bold;vertical-align:top;">folder</td><td style="vertical-align:top;">:</td><td><div>/Users/logyuan/Documents/web2py/applications/fbbrt/</div></td></tr><tr><td style="font-weight:bold;vertical-align:top;">function</td><td style="vertical-align:top;">:</td><td><div>test2</div></td></tr><tr><td style="font-weight:bold;vertical-align:top;">global_settings</td><td style="vertical-align:top;">:</td><td><div><table><tr><td style="font-weight:bold;vertical-align:top;">app_folders</td><td style="vertical-align:top;">:</td><td><div>set([&#x27;/Users/logyuan/Documents/web2py/applications/fbbrt/&#x27;, &#x27;/Users/logyuan/Documents/web2py/applications/admin/&#x27;, &#x27;/Users/logyuan/Documents/web2py/applications/welcome/&#x27;])</div></td></tr><tr><td style="font-weight:bold;vertical-align:top;">applications_parent</td><td style="vertical-align:top;">:</td><td><div>/Users/logyuan/Documents/web2py</div></td></tr><tr><td style="font-weight:bold;vertical-align:top;">cmd_args</td><td style="vertical-align:top;">:</td><td><div><table></table></div></td></tr><tr><td style="font-weight:bold;vertical-align:top;">cmd_options</td><td style="vertical-align:top;">:</td><td><div>&lt;Values at 0x106f864d0: {&#x27;verbose&#x27;: False, &#x27;ip&#x27;: &#x27;127.0.0.1&#x27;, &#x27;debuglevel&#x27;: 30, &#x27;with_scheduler&#x27;: False, &#x27;ips&#x27;: [&#x27;192.168.2.1&#x27;, &#x27;fe80::60c:ceff:fee3:df4a%en0&#x27;, &#x27;10.37.129.2&#x27;, &#x27;fe80::40c:ceff:fe3e:b700%bridge0&#x27;, &#x27;10.211.55.2&#x27;, &#x27;192.168.1.111&#x27;], &#x27;shutdown_timeout&#x27;: 5, &#x27;taskbar&#x27;: False, &#x27;with_coverage&#x27;: False, &#x27;port&#x27;: 8000, &#x27;maxthreads&#x27;: None, &#x27;softcron&#x27;: False, &#x27;server_name&#x27;: &#x27;maclogair.local&#x27;, &#x27;bpython&#x27;: False, &#x27;nogui&#x27;: False, &#x27;pid_filename&#x27;: &#x27;httpserver.pid&#x27;, &#x27;extcron&#x27;: False, &#x27;runcron&#x27;: False, &#x27;run_system_tests&#x27;: False, &#x27;test&#x27;: None, &#x27;folder&#x27;: &#x27;/Users/logyuan/Documents/web2py&#x27;, &#x27;config&#x27;: &#x27;&#x27;, &#x27;minthreads&#x27;: None, &#x27;shell&#x27;: None, &#x27;run&#x27;: &#x27;&#x27;, &#x27;log_filename&#x27;: &#x27;httpserver.log&#x27;, &#x27;profiler_dir&#x27;: None, &#x27;args&#x27;: [&#x27;&#x27;], &#x27;socket_timeout&#x27;: 5, &#x27;ssl_ca_certificate&#x27;: None, &#x27;scheduler&#x27;: None, &#x27;interfaces&#x27;: None, &#x27;ssl_private_key&#x27;: &#x27;&#x27;, &#x27;scheduler_groups&#x27;: None, &#x27;password&#x27;: &#x27;&lt;ask&gt;&#x27;, &#x27;request_queue_size&#x27;: 5, &#x27;ssl_certificate&#x27;: &#x27;&#x27;, &#x27;cronjob&#x27;: False, &#x27;numthreads&#x27;: None, &#x27;quiet&#x27;: False, &#x27;import_models&#x27;: False, &#x27;timeout&#x27;: 10, &#x27;plain&#x27;: False, &#x27;nobanner&#x27;: False}&gt;</div></td></tr><tr><td style="font-weight:bold;vertical-align:top;">db_sessions</td><td style="vertical-align:top;">:</td><td><div>set([])</div></td></tr><tr><td style="font-weight:bold;vertical-align:top;">debugging</td><td style="vertical-align:top;">:</td><td><div>False</div></td></tr><tr><td style="font-weight:bold;vertical-align:top;">gluon_parent</td><td style="vertical-align:top;">:</td><td><div>/Users/logyuan/Documents/web2py</div></td></tr><tr><td style="font-weight:bold;vertical-align:top;">is_jython</td><td style="vertical-align:top;">:</td><td><div>False</div></td></tr><tr><td style="font-weight:bold;vertical-align:top;">is_pypy</td><td style="vertical-align:top;">:</td><td><div>False</div></td></tr><tr><td style="font-weight:bold;vertical-align:top;">is_source</td><td style="vertical-align:top;">:</td><td><div>True</div></td></tr><tr><td style="font-weight:bold;vertical-align:top;">local_hosts</td><td style="vertical-align:top;">:</td><td><div><table><tr><td><div>192.168.2.1</div></td></tr><tr><td><div>fe80::60c:ceff:fee3:df4a%en0</div></td></tr><tr><td><div>fe80::40c:ceff:fe3e:b700%bridge0</div></td></tr><tr><td><div>10.37.129.2</div></td></tr><tr><td><div>::ffff:127.0.0.1</div></td></tr><tr><td><div>::1</div></td></tr><tr><td><div>10.211.55.2</div></td></tr><tr><td><div>192.168.1.111</div></td></tr><tr><td><div>maclogair.local</div></td></tr><tr><td><div>127.0.0.1</div></td></tr></table></div></td></tr><tr><td style="font-weight:bold;vertical-align:top;">web2py_version</td><td style="vertical-align:top;">:</td><td><div>2.9.5-stable+timestamp.2014.03.20.22.57.13</div></td></tr></table></div></td></tr><tr><td style="font-weight:bold;vertical-align:top;">is_https</td><td style="vertical-align:top;">:</td><td><div>False</div></td></tr><tr><td style="font-weight:bold;vertical-align:top;">is_local</td><td style="vertical-align:top;">:</td><td><div>True</div></td></tr><tr><td style="font-weight:bold;vertical-align:top;">is_restful</td><td style="vertical-align:top;">:</td><td><div>False</div></td></tr><tr><td style="font-weight:bold;vertical-align:top;">now</td><td style="vertical-align:top;">:</td><td><div>datetime.datetime(2015, 3, 5, 16, 48, 31, 139894)</div></td></tr><tr><td style="font-weight:bold;vertical-align:top;">raw_args</td><td style="vertical-align:top;">:</td><td><div></div></td></tr><tr><td style="font-weight:bold;vertical-align:top;">raw_extension</td><td style="vertical-align:top;">:</td><td><div>None</div></td></tr><tr><td style="font-weight:bold;vertical-align:top;">url</td><td style="vertical-align:top;">:</td><td><div>/fbbrt/newsAPI/test2</div></td></tr><tr><td style="font-weight:bold;vertical-align:top;">utcnow</td><td style="vertical-align:top;">:</td><td><div>datetime.datetime(2015, 3, 5, 8, 48, 31, 139917)</div></td></tr><tr><td style="font-weight:bold;vertical-align:top;">uuid</td><td style="vertical-align:top;">:</td><td><div>fbbrt/127.0.0.1.2015-03-05.16-48-31.21aa4e74-9379-4b0d-9453-df6ca227eec1</div></td></tr><tr><td style="font-weight:bold;vertical-align:top;">wsgi</td><td style="vertical-align:top;">:</td><td><div>&lt;gluon.main.LazyWSGI object at 0x16139e490&gt;</div></td></tr></table></div>'
tRp63
sS'frames'
p64
(lp65
(dp66
S'file'
p67
S'/Users/logyuan/Documents/web2py/gluon/restricted.py'
p68
sS'dump'
p69
(dp70
S'environment'
p71
S"{'A': <class 'gluon.html.A'>, 'ANY_OF': <class 'gluon.validators.ANY_OF'>, 'Auth': <class 'gluon.tools.Auth'>, 'B': <class 'gluon.html.B'>, 'BEAUTIFY': <class 'gluon.html.BEAUTIFY'>, 'BODY': <class 'gluon.html.BODY'>, 'BR': <class 'gluon.html.BR'>, 'BUTTON': <class 'gluon.html.BUTTON'>, 'BestComments': <function BestComments>, 'CAT': <class 'gluon.html.CAT'>, ...}"
p72
sS'ccode'
p73
S'<code object <module> at 0x1605a2130, file "/Use...plications/fbbrt/controllers/newsAPI.py", line 3>'
p74
ssS'lnum'
p75
I220
sS'lines'
p76
(dp77
I224
S'        # do not encapsulate (obfuscate) the original RestrictedError'
p78
sI215
S'    try:'
p79
sI216
S'        if isinstance(code, types.CodeType):'
p80
sI217
S'            ccode = code'
p81
sI218
S'        else:'
p82
sI219
S'            ccode = compile2(code, layer)'
p83
sI220
S'        exec ccode in environment'
p84
sI221
S'    except HTTP:'
p85
sI222
S'        raise'
p86
sI223
S'    except RestrictedError:'
p87
ssS'call'
p88
S"(code='# coding: utf8\\n# try something like\\nimport urlli...eep(1.5)\\n\\nresponse._vars=response._caller(test2)\\n', environment={'A': <class 'gluon.html.A'>, 'ANY_OF': <class 'gluon.validators.ANY_OF'>, 'Auth': <class 'gluon.tools.Auth'>, 'B': <class 'gluon.html.B'>, 'BEAUTIFY': <class 'gluon.html.BEAUTIFY'>, 'BODY': <class 'gluon.html.BODY'>, 'BR': <class 'gluon.html.BR'>, 'BUTTON': <class 'gluon.html.BUTTON'>, 'BestComments': <function BestComments>, 'CAT': <class 'gluon.html.CAT'>, ...}, layer='/Users/logyuan/Documents/web2py/applications/fbbrt/controllers/newsAPI.py')"
p89
sS'func'
p90
S'restricted'
p91
sa(dp92
g67
S'/Users/logyuan/Documents/web2py/applications/fbbrt/controllers/newsAPI.py'
p93
sg69
(dp94
sg75
I536
sg76
(dp95
I525
S'    #return len(rows)'
p96
sI526
S'    #return json.dumps(female_wordclouds_nr)'
p97
sI527
S''
sI528
S'def ConvertComments():'
p98
sI529
S'    rows = fbdb(fbdb.news_comments.comments <> None).select()  #'
p99
sI530
S'    for row in rows:'
p100
sI531
S'        convertNewsComms(row["fid"])'
p101
sI532
S''
sI533
S'def delay():'
p102
sI534
S'    time.sleep(1.5)'
p103
ssg88
S'()'
p104
sg90
S'<module>'
p105
sa(dp106
g67
S'/Users/logyuan/Documents/web2py/gluon/globals.py'
p107
sg69
(dp108
S'self'
p109
S'undefined'
p110
sS'f'
S'<function test2>'
p111
ssg75
I385
sg76
(dp112
I384
S'        self._vars = None'
p113
sI385
S'        self._caller = lambda f: f()'
p114
sI386
S'        self._view_environment = None'
p115
sI387
S'        self._custom_commit = None'
p116
sI388
S'        self._custom_rollback = None'
p117
sI389
S''
sI380
S'        self.menu = []             # used by the default view layout'
p118
sI381
S'        self.files = []            # used by web2py_ajax.html'
p119
sI382
S'        self.generic_patterns = []  # patterns to allow generic views'
p120
sI383
S"        self.delimiters = ('{{', '}}')"
p121
ssg88
S'(f=<function test2>)'
p122
sg90
S'<lambda>'
p123
sa(dp124
g67
S'/Users/logyuan/Documents/web2py/applications/fbbrt/controllers/newsAPI.py'
p125
sg69
(dp126
S'newsbrt.updateAllComments'
p127
S'<bound method NewsGroup.updateAllComments of <__restricted__.NewsGroup instance>>'
p128
sS'newsbrt'
p129
S'<__restricted__.NewsGroup instance>'
p130
ssg75
I107
sg76
(dp131
I102
S'    # newsbrt.updateAllSocialCount()'
p132
sI103
S'    # ended_time = datetime.datetime.now()'
p133
sI104
S"    # fbdb.event_logs.insert(function='updateAllSocialCount', started_time=started_time, ended_time=ended_time)"
p134
sI105
S'    # fbdb.commit()'
p135
sI106
S'    started_time = datetime.datetime.now()'
p136
sI107
S'    newsbrt.updateAllComments()'
p137
sI108
S'    ended_time = datetime.datetime.now()'
p138
sI109
S"    fbdb.event_logs.insert(function='updateAllComments', started_time=started_time, ended_time=ended_time)"
p139
sI110
S'    fbdb.commit()'
p140
sI111
S'    #test5=getGroupUrlsSocialCount("http://udn.com/news/story/7548/677801,http://news.ltn.com.tw/news/local/paper/852017,http://www.chinatimes.com/newspapers/20150223000068-260210,http://www.appledaily.com.tw/realtimenews/article/new/20150112/540406/,http://www.chinatimes.com/realtimenews/20150223002434-260405")'
p141
ssg88
S'()'
p142
sg90
S'test2'
p143
sa(dp144
g67
S'/Users/logyuan/Documents/web2py/applications/fbbrt/models/graph.py'
p145
sg69
(dp146
S'fids'
p147
S"'1016340705062516,600808040019726,920301688010698...4,724865657627709,680501485380396,776344072449017'"
p148
sS'global getGroupNewsComment'
p149
S'<function getGroupNewsComment>'
p150
ssg75
I605
sg76
(dp151
I608
S'        getGroupNewsComment(fids)'
p152
sI609
S'        return None'
p153
sI600
S''
sI601
S'    def updateAllComments(self):'
p154
sI602
S"        fids = ''"
p155
sI603
S'        for fid in self.hasComment_fids_list:'
p156
sI604
S"            if len(fids.split(',')) >=50:"
p157
sI605
S'                getGroupNewsComment(fids)'
p158
sI606
S"                fids = ''"
p159
sI607
S'            fids = fids + \',\' + fid["fid"] if len(fids) <> 0 else fid["fid"]'
p160
ssg88
S'(self=<__restricted__.NewsGroup instance>)'
p161
sg90
S'updateAllComments'
p162
sa(dp163
g67
S'/Users/logyuan/Documents/web2py/applications/fbbrt/models/graph.py'
p164
sg69
(dp165
S'builtinstr'
p166
S"<type 'str'>"
p167
sS'posts'
p168
S"{'data': [{'comment_count': 13, 'comments': {'data': [{'can_remove': False, 'created_time': '2015-01-19T05:19:18+0000', 'from': {...}, 'id': '888863661153948_888874347819546', 'like_count': 58, 'message': u'\\u5e6b\\u6797\\u4f73\\u9f8d\\u88dc\\u5145\\u8aaa\\u66...\\u5be7\\u9858\\u8ce0\\u6b3e\\u4e5f\\u4e0d\\u5272\\u5730', 'user_likes': False}, {'can_remove': False, 'created_time': '2015-01-19T05:24:37+0000', 'from': {...}, 'id': '888863661153948_888875971152717', 'like_count': 47, 'message': u'\\u6709\\u554a\\uff0c\\u7092\\u623f\\u7684\\u529f\\u80fd\\u6027\\u61c9\\u8a72\\u4e0d\\u932f\\uff01', 'user_likes': False}, {'can_remove': False, 'created_time': '2015-01-19T05:25:52+0000', 'from': {...}, 'id': '888863661153948_888876217819359', 'like_count': 127, 'message': u'\\u8981\\u7576KMT\\u9ad8\\u5b98\\u7684\\u5854\\u4f4d\\u7528\\u7684', 'user_likes': False}, {'can_remove': False, 'created_time': '2015-01-19T05:34:54+0000', 'from': {...}, 'id': '888863661153948_888878517819129', 'like_count': 8, 'message': u'\\u99ac\\u6c40 \\u5999\\u7b54^^', 'user_likes': False}, {'can_remove': False, 'created_time': '2015-01-19T05:37:41+0000', 'from': {...}, 'id': '888863661153948_888879104485737', 'like_count': 3, 'message': u'\\u7121\\u804a\\u53ef\\u4ee5\\u53bb\\u722c\\u7df4\\u8eab\\u9ad4\\u3002', 'user_likes': False}, {'can_remove': False, 'created_time': '2015-01-19T06:00:50+0000', 'from': {...}, 'id': '888863661153948_888884877818493', 'like_count': 43, 'message': u'\\u6211\\u4e0d\\u662f9.2\\uff0c\\u4e0d\\u904e\\u6211\\...\\u706b\\u5834\\u5730\\u7684\\u7d55\\u4f73\\u9078\\u64c7', 'user_likes': False}, {'can_remove': False, 'created_time': '2015-01-19T06:01:04+0000', 'from': {...}, 'id': '888863661153948_888884974485150', 'like_count': 5, 'message': u'\\u589e\\u52a0\\u9ee8\\u7522', 'user_likes': False}, {'can_remove': False, 'created_time': '2015-01-19T06:34:34+0000', 'from': {...}, 'id': '888863661153948_888892731151041', 'like_count': 28, 'message': u'\\u88e1\\u9762\\u6703\\u6709\\u8aaa\\u66f8\\u4eba\\uff...621099\\u56de\\uff0c\\u6bcf\\u5929\\u4e00\\u76f4\\u8aaa', 'user_likes': False}, {'can_remove': False, 'created_time': '2015-01-19T06:52:51+0000', 'from': {...}, 'id': '888863661153948_888897021150612', 'like_count': 7, 'message': u'\\u771f\\u7684\\u89ba\\u5f97\\u6703\\u6210\\u70ba\\u81ea\\u6bba\\u8056\\u5730\\u22ef', 'user_likes': False}, {'can_remove': False, 'created_time': '2015-01-19T07:19:54+0000', 'from': {...}, 'id': '888863661153948_888904547816526', 'like_count': 2, 'message': u'0+LN\\u6b64\\u8a71\\u4e00\\u51fa\\u5468\\u908a\\u623f\\u50f9 \\u77ac\\u9593-10%', 'user_likes': False}, {'can_remove': False, 'created_time': '2015-01-19T08:09:59+0000', 'from': {...}, 'id': '888863661153948_888925097814471', 'like_count': 17, 'message': u'150\\u5104\\u90fd\\u53ef\\u4ee5\\u84cb\\u4e00\\u689dL...u4eba \\u771f\\u7684\\u662f\\u798d\\u60a3\\u7121\\u7aae', 'user_likes': False}, {'can_remove': False, 'created_time': '2015-01-19T16:08:46+0000', 'from': {...}, 'id': '888863661153948_889103247796656', 'like_count': 2, 'message': u'\\u9673\\u79c0\\u6797 \\u4f60\\u5be6\\u5728\\u592a\\u5...u63a5 \\u807d\\u773e\\u61c9\\u8a72\\u4e0d\\u6703\\u5c11', 'user_likes': False}, {'can_remove': False, 'created_time': '2015-01-20T15:47:40+0000', 'from': {...}, 'id': '888863661153948_889647654408882', 'like_count': 0, 'message': u'\\u5c31\\u662f\\u8981\\u4f86\\u7092\\u5730\\u76ae\\u963f\\uff01', 'user_likes': False}], 'paging': {'cursors': {'after': 'WTI5dGJXVnVkRjlqZFhKemIzSTZPRGc1TmpRM05qVTBOREE0T0RneU9qRTBNakUzTmpnNE5qQT0=', 'before': 'WTI5dGJXVnVkRjlqZFhKemIzSTZPRGc0T0RjME16UTNPREU1TlRRMk9qRTBNakUyTkRRM05UZz0='}}}, 'created_time': '2015-01-19T04:42:54+0000', 'from': {'id': '405526576281112', 'name': 'Zhong-xian Ke'}, 'id': '888863661153948_888865144487133', 'like_count': 147, 'likes': {'data': [{'id': '1602922983270539', 'name': u'\\u674e\\u9708\\u7dba'}, {'id': '973066252718619', 'name': u'\\u9673\\u6625\\u7f8e'}, {'id': '10206039332726049', 'name': 'Jui Chu Chang'}, {'id': '10205379696724291', 'name': 'Amy H. T. Lin'}, {'id': '883401508348475', 'name': u'\\u632f\\u8c6a'}, {'id': '10202816633091887', 'name': u'\\u9673\\u51a0\\u7db8'}, {'id': '953022934709978', 'name': u'Iain \\u67f3\\u6fa4'}, {'id': '10203851031019050', 'name': 'Bulu Chang'}, {'id': '10206461216998692', 'name': 'Laura Nishikido Ryo Chen'}, {'id': '10203413556372570', 'name': 'Kuowei Hsiao'}, {'id': '10153178087999312', 'name': 'Hsin-Chieh Derrick Lin'}, {'id': '828648933862798', 'name': 'Eagie Hades'}, {'id': '939784899365766', 'name': u'\\u76e7\\u6641\\u6bc5'}, {'id': '910139379020299', 'name': 'JianJyun Liao'}, {'id': '779912228753732', 'name': u'\\u65bd\\u9298\\u6e05'}, {'id': '945065908846725', 'name': u'\\u90b1\\u5a01\\u9054'}, {'id': '896144910447544', 'name': 'Masato Nakamura'}, {'id': '1558946364385531', 'name': 'Fuji Hoopee'}, {'id': '874899869238225', 'name': u'\\u9ec3\\u827e\\u746a'}, {'id': '824735680934561', 'name': 'Emily Kuo'}, ...], 'paging': {'cursors': {'after': 'MTU0MzQwMDI2OTI3NTA4Nw==', 'before': 'MTYwMjkyMjk4MzI3MDUzOQ=='}}}, 'message': u'\\u8a71\\u8aaa\\uff11\\uff15\\uff10\\uff25\\u7684\\u53...\\u5f88\\u611f\\u8b1d\\u4f60\\uff0c\\u771f\\u7684\\u3002'}, {'comment_count': 8, 'comments': {'data': [{'can_remove': False, 'created_time': '2015-01-19T04:53:15+0000', 'from': {...}, 'id': '888863661153948_888867817820199', 'like_count': 15, 'message': u'\\u6700\\u4e2d\\u80af\\u3002', 'user_likes': False}, {'can_remove': False, 'created_time': '2015-01-19T06:35:25+0000', 'from': {...}, 'id': '888863661153948_888892921151022', 'like_count': 64, 'message': u'\\u84cb\\u500b\\u80e1\\u5fd7\\u5f37\\u5de8\\u50cf\\u59...\\u9806\\u4fbf\\u6539\\u540d\\u80e1\\u5fd7\\u5f37\\u5e02', 'user_likes': False}, {'can_remove': False, 'created_time': '2015-01-19T07:01:10+0000', 'from': {...}, 'id': '888863661153948_888899071150407', 'like_count': 29, 'message': u'\\u9673\\u79c0\\u6797 \\u5c0d\\u54c4 \\u9084\\u53ef\\u...8d8a \\u5357 \\u80e1\\u5fd7\\u660e\\u5e02\\u7d50\\u62dc', 'user_likes': False}, {'can_remove': False, 'created_time': '2015-01-19T07:51:16+0000', 'from': {...}, 'id': '888863661153948_888921054481542', 'like_count': 5, 'message': u'Pro Chang \\u9019\\u6a23\\u771f\\u7684\\u662f\\u56b4\\u91cd\\u6c59\\u8fb1\\u80e1\\u5fd7\\u660e\\u4e86', 'user_likes': False}, {'can_remove': False, 'created_time': '2015-01-19T09:15:42+0000', 'from': {...}, 'id': '888863661153948_888941214479526', 'like_count': 0, 'message': u'\\u9673\\u79c0\\u6797 \\u6211\\u4e0d\\u5141\\u8a31\\u4f60\\u6c59\\u8fb1\\u9ed1\\u8c6c\\u5f37', 'user_likes': False}, {'can_remove': False, 'created_time': '2015-01-19T10:30:08+0000', 'from': {...}, 'id': '888863661153948_888958624477785', 'like_count': 1, 'message': u'\\u8ddf\\u4ffa\\u6709\\u540c\\u611f...........', 'user_likes': False}, {'can_remove': False, 'created_time': '2015-01-19T13:15:33+0000', 'from': {...}, 'id': '888863661153948_889013817805599', 'like_count': 1, 'message': u'\\u795e\\u56de~', 'user_likes': False}, {'can_remove': False, 'created_time': '2015-01-20T00:18:18+0000', 'from': {...}, 'id': '888863661153948_889304464443201', 'like_count': 0, 'message': u'\\u59d0\\u59b9\\u5e02', 'user_likes': False}], 'paging': {'cursors': {'after': 'WTI5dGJXVnVkRjlqZFhKemIzSTZPRGc1TXpBME5EWTBORFF6TWpBeE9qRTBNakUzTVRNd09UZz0=', 'before': 'WTI5dGJXVnVkRjlqZFhKemIzSTZPRGc0T0RZM09ERTNPREl3TVRrNU9qRTBNakUyTkRNeE9UVT0='}}}, 'created_time': '2015-01-19T04:49:29+0000', 'from': {'id': '10202970474536483', 'name': 'Ed Ji'}, 'id': '888863661153948_888866804486967', 'like_count': 108, 'likes': {'data': [{'id': '800999639969762', 'name': 'Ting Young'}, {'id': '910139379020299', 'name': 'JianJyun Liao'}, {'id': '328956060637145', 'name': u'\\u7d00\\u5b97\\u5cb3'}, {'id': '10204013630962082', 'name': 'Peichi Ho'}, {'id': '533385453469662', 'name': u'\\u5f35\\u6dd1\\u6167'}, {'id': '1019716061376727', 'name': u'\\u9ec3\\u9a30\\u9707'}, {'id': '948392328512452', 'name': 'Chanel Tseng'}, {'id': '883401508348475', 'name': u'\\u632f\\u8c6a'}, {'id': '10202816633091887', 'name': u'\\u9673\\u51a0\\u7db8'}, {'id': '888700297849276', 'name': 'Xin Yi Shen'}, {'id': '10206461216998692', 'name': 'Laura Nishikido Ryo Chen'}, {'id': '10205718948070651', 'name': 'Hou-Yi Chang'}, {'id': '1045655922114933', 'name': u'\\u8449\\u6631\\u91cc'}, {'id': '851402541586575', 'name': 'Yuusui Chan'}, {'id': '945065908846725', 'name': u'\\u90b1\\u5a01\\u9054'}, {'id': '938184356216100', 'name': 'Jason Lin'}, {'id': '1558946364385531', 'name': 'Fuji Hoopee'}, {'id': '874899869238225', 'name': u'\\u9ec3\\u827e\\u746a'}, {'id': '1062005367148836', 'name': u'\\u5b6b\\u65b0\\u7fd4'}, {'id': '285024584955249', 'name': 'Grace  Yang'}, ...], 'paging': {'cursors': {'after': 'MTEwMTIzMTkyOTkwMzExNg==', 'before': 'ODAwOTk5NjM5OTY5NzYy'}}}, 'message': u'\\u9084\\u4e0d\\u5982\\u84cb\\u500b\\u9748\\u9aa8\\u5854\\u6bd4\\u8f03\\u5be6\\u7528'}, {'comment_count': 3, 'comments': {'data': [{'can_remove': False, 'created_time': '2015-01-19T06:35:53+0000', 'from': {...}, 'id': '888863661153948_888893034484344', 'like_count': 2, 'message': u'\\u771f\\u7684', 'user_likes': False}, {'can_remove': False, 'created_time': '2015-01-20T07:28:32+0000', 'from': {...}, 'id': '888863661153948_889420887764892', 'like_count': 2, 'message': u'\\u4e4b\\u524d\\u6709\\u770b\\u904e\\u65b0\\u805e\\u58...u5230\\u7684\\u90a3\\u7a2e\\u73bb\\u7483\\u5427....!!!', 'user_likes': False}, {'can_remove': False, 'created_time': '2015-01-21T01:43:29+0000', 'from': {...}, 'id': '888863661153948_889879864385661', 'like_count': 0, 'message': u'\\u6de1\\u5b9a \\u4f60\\u61c2\\u4f60\\u5c31\\u662f\\u5927\\u5e2b\\u4e86', 'user_likes': False}], 'paging': {'cursors': {'after': 'WTI5dGJXVnVkRjlqZFhKemIzSTZPRGc1T0RjNU9EWTBNemcxTmpZeE9qRTBNakU0TURRMk1UQT0=', 'before': 'WTI5dGJXVnVkRjlqZFhKemIzSTZPRGc0T0Rrek1ETTBORGcwTXpRME9qRTBNakUyTkRrek5UTT0='}}}, 'created_time': '2015-01-19T04:43:26+0000', 'from': {'id': '785363684873429', 'name': 'Jun De'}, 'id': '888863661153948_888865254487122', 'like_count': 79, 'likes': {'data': [{'id': '863834067007539', 'name': u'\\u8a79\\u76ca\\u82ac'}, {'id': '910139379020299', 'name': 'JianJyun Liao'}, {'id': '993835823979199', 'name': u'\\u5f35\\u8a60\\u7fd4'}, {'id': '778459162235625', 'name': 'Tin Chen'}, {'id': '844584282280437', 'name': 'Fish Tsai'}, {'id': '852238958155132', 'name': 'Chang-Jiun Terrence Wu'}, {'id': '866611980068181', 'name': u'\\u838a\\u500d\\u627f'}, {'id': '10152753058631242', 'name': 'Shun-Ping Huang'}, {'id': '10205379696724291', 'name': 'Amy H. T. Lin'}, {'id': '10202816633091887', 'name': u'\\u9673\\u51a0\\u7db8'}, {'id': '1041856415829186', 'name': 'Novia Chen'}, {'id': '10205718948070651', 'name': 'Hou-Yi Chang'}, {'id': '10205806361179699', 'name': 'Jude Huang'}, {'id': '1067860483227769', 'name': 'Yu-wen Chen'}, {'id': '10203809894340218', 'name': 'YuanJiun Tuan'}, {'id': '10205147607044196', 'name': 'Bianca Kuo'}, {'id': '1558946364385531', 'name': 'Fuji Hoopee'}, {'id': '934495629907836', 'name': u'\\u9ec3\\u93f5\\u53f3'}, {'id': '285024584955249', 'name': 'Grace  Yang'}, {'id': '923005187718115', 'name': u'\\u97d3\\u96f2'}, ...], 'paging': {'cursors': {'after': 'MTU0MzQwMDI2OTI3NTA4Nw==', 'before': 'ODYzODM0MDY3MDA3NTM5'}}}, 'message': u'\\u5716\\u770b\\u8d77\\u4f86\\u5c31\\u50cf\\u7528\\u9d...\\u76ae\\u6a39\\u6728\\u6490\\u5230\\u534a\\u7a7a\\u4e2d'}, {'comment_count': 0, 'created_time': '2015-01-19T05:12:57+0000', 'from': {'id': '1058815667467938', 'name': 'Cefars Chen'}, 'id': '888863661153948_888872821153032', 'like_count': 9, 'likes': {'data': [{'id': '10205379696724291', 'name': 'Amy H. T. Lin'}, {'id': '451304701688924', 'name': 'Jeff  Lim'}, {'id': '1060063587341867', 'name': 'Kuo Chen'}, {'id': '10206213685612090', 'name': 'Julius Lim'}, {'id': '905080252859120', 'name': 'Yvonne Chen'}, {'id': '744796525618050', 'name': 'Su Xiao Yu'}, {'id': '943948125623447', 'name': u'\\u9ea5\\u82d7\\u79c0'}, {'id': '1543400269275087', 'name': u'\\u6d2a\\u65ed\\u797a'}, {'id': '451185718364834', 'name': u'\\u5f35\\u7389\\u7434'}], 'paging': {'cursors': {'after': 'NDUxMTg1NzE4MzY0ODM0', 'before': 'MTAyMDUzNzk2OTY3MjQyOTE='}}}, 'message': u'80\\u5104\\u62ff\\u4f86\\u62c6BRT+\\u84cb\\u5730\\u9435, \\u61c9\\u8a72\\u6703\\u6bd4\\u8f03\\u597d!'}, {'comment_count': 0, 'created_time': '2015-01-19T05:25:57+0000', 'from': {'id': '10153610440215410', 'name': 'Leon Chen'}, 'id': '888863661153948_888876234486024', 'like_count': 6, 'likes': {'data': [{'id': '10205379696724291', 'name': 'Amy H. T. Lin'}, {'id': '451304701688924', 'name': 'Jeff  Lim'}, {'id': '1034201149942181', 'name': u'\\u9673\\u82af'}, {'id': '1060063587341867', 'name': 'Kuo Chen'}, {'id': '905080252859120', 'name': 'Yvonne Chen'}, {'id': '943948125623447', 'name': u'\\u9ea5\\u82d7\\u79c0'}], 'paging': {'cursors': {'after': 'OTQzOTQ4MTI1NjIzNDQ3', 'before': 'MTAyMDUzNzk2OTY3MjQyOTE='}}}, 'message': u'\\u53f0\\u4e2d\\u5e02\\u9700\\u8981\\u6210\\u7acb\\u5e...\\uff01\\u5927\\u5bb6\\u7b49\\u8457\\u770b\\u5427\\uff01'}, {'comment_count': 0, 'created_time': '2015-01-19T06:05:35+0000', 'from': {'id': '1738418129717780', 'name': 'Emptiness Infinity'}, 'id': '888863661153948_888886021151712', 'like_count': 1, 'likes': {'data': [{'id': '451304701688924', 'name': 'Jeff  Lim'}], 'paging': {'cursors': {'after': 'NDUxMzA0NzAxNjg4OTI0', 'before': 'NDUxMzA0NzAxNjg4OTI0'}}}, 'message': u'\\u84cb\\u5566\\uff01\\u84cb\\u5566\\uff01\\u9802\\u59...\\u5f8c\\u4eba\\u300c\\u8ffd\\u601d\\u6191\\u5f14\\u300d'}, {'comment_count': 0, 'created_time': '2015-01-20T05:53:02+0000', 'from': {'id': '10205143900369400', 'name': 'Carolyn Hsu'}, 'id': '888863661153948_889398461100468', 'like_count': 1, 'likes': {'data': [{'id': '844584282280437', 'name': 'Fish Tsai'}], 'paging': {'cursors': {'after': 'ODQ0NTg0MjgyMjgwNDM3', 'before': 'ODQ0NTg0MjgyMjgwNDM3'}}}, 'message': u'\\u932f\\u8aa4\\u6c7a\\u7b56\\u6bd4\\u8caa\\u6c61\\u66...u6211\\u5b8c\\u5168\\u8a8d\\u540c\\u9019\\u53e5\\u8a71~'}, {'comment_count': 0, 'created_time': '2015-01-19T05:16:02+0000', 'from': {'id': '1047985701883728', 'name': 'John Chang'}, 'id': '888863661153948_888873561152958', 'like_count': 43, 'likes': {'data': [{'id': '973066252718619', 'name': u'\\u9673\\u6625\\u7f8e'}, {'id': '10205379696724291', 'name': 'Amy H. T. Lin'}, {'id': '1030276053653450', 'name': u'\\u795d\\u9298\\u4f51'}, {'id': '10202816633091887', 'name': u'\\u9673\\u51a0\\u7db8'}, {'id': '10153098485522726', 'name': u'\\u5433\\u5072\\u745c'}, {'id': '10203851031019050', 'name': 'Bulu Chang'}, {'id': '958423244168756', 'name': u'\\u856d\\u6dd1\\u82b3'}, {'id': '1020832994611472', 'name': 'Shingstar Tsai'}, {'id': '1045655922114933', 'name': u'\\u8449\\u6631\\u91cc'}, {'id': '902534393143477', 'name': u'\\u5f6d\\u79cb\\u4f86'}, {'id': '1031054546909242', 'name': u'\\u9673\\u827e\\u744b'}, {'id': '10153111503708599', 'name': 'Warren Lin'}, {'id': '755806871154819', 'name': u'\\u9ad8\\u7802\\u767e\\u5408'}, {'id': '934495629907836', 'name': u'\\u9ec3\\u93f5\\u53f3'}, {'id': '10202433576359036', 'name': 'Kai-yun Chang'}, {'id': '285024584955249', 'name': 'Grace  Yang'}, {'id': '923005187718115', 'name': u'\\u97d3\\u96f2'}, {'id': '798267536921379', 'name': 'David Wang'}, {'id': '941477975864935', 'name': 'Cheng Lee'}, {'id': '894138543959086', 'name': u'\\u9673\\u5955\\u9716'}, ...], 'paging': {'cursors': {'after': 'OTQzOTQ4MTI1NjIzNDQ3', 'before': 'OTczMDY2MjUyNzE4NjE5'}}}, 'message': u'\\u5176\\u5be6\\u2026\\u53f0\\u7063\\u76ee\\u524d\\u76...\\u53bb\\u904e\\u7684\\u90fd\\u6703\\u77e5\\u9053\\u2026'}, {'comment_count': 0, 'created_time': '2015-01-19T04:46:25+0000', 'from': {'id': '877973675578686', 'name': u'\\u90b1\\u5fd7\\u958e'}, 'id': '888863661153948_888866051153709', 'like_count': 43, 'likes': {'data': [{'id': '1602922983270539', 'name': u'\\u674e\\u9708\\u7dba'}, {'id': '844584282280437', 'name': 'Fish Tsai'}, {'id': '973066252718619', 'name': u'\\u9673\\u6625\\u7f8e'}, {'id': '797858740293222', 'name': u'\\u90ed\\u5927\\u7dad'}, {'id': '10205960451401316', 'name': 'Josephine Cheng'}, {'id': '10203851031019050', 'name': 'Bulu Chang'}, {'id': '958423244168756', 'name': u'\\u856d\\u6dd1\\u82b3'}, {'id': '1045655922114933', 'name': u'\\u8449\\u6631\\u91cc'}, {'id': '1081072341918239', 'name': u'\\u96f7\\u6d77\\u9752'}, {'id': '907749575911980', 'name': 'Look Yu'}, {'id': '10205147607044196', 'name': 'Bianca Kuo'}, {'id': '1031054546909242', 'name': u'\\u9673\\u827e\\u744b'}, {'id': '934495629907836', 'name': u'\\u9ec3\\u93f5\\u53f3'}, {'id': '285024584955249', 'name': 'Grace  Yang'}, {'id': '799713940096682', 'name': u'\\u9673\\u67cf\\u7db8'}, {'id': '894138543959086', 'name': u'\\u9673\\u5955\\u9716'}, {'id': '1024453597568995', 'name': 'Anna Wang'}, {'id': '10202514953274101', 'name': 'Steven Wu'}, {'id': '778598795551524', 'name': u'\\u838a\\u66dc\\u83ef'}, {'id': '10202374390401319', 'name': u'\\u9673\\u67cf\\u52f3'}, ...], 'paging': {'cursors': {'after': 'MTU0MzQwMDI2OTI3NTA4Nw==', 'before': 'MTYwMjkyMjk4MzI3MDUzOQ=='}}}, 'message': u'\\u53c8\\u662f\\u4e00\\u4ef6KMT\\u653f\\u5ba2\\u597d\\...7a0b,\\u9084\\u597d\\u6709\\u653f\\u9ee8\\u8f2a\\u66ff~'}, {'comment_count': 4, 'comments': {'data': [{'can_remove': False, 'created_time': '2015-01-19T05:45:00+0000', 'from': {...}, 'id': '888863661153948_888881137818867', 'like_count': 23, 'message': u'\\u56e0\\u70ba\\u7b2c\\u4e00\\u6b21\\u7684\\u9810\\u7b...u72d7\\u5b98\\u8981\\u62ff\\u7684 \\u7b97\\u9032\\u53bb', 'user_likes': False}, {'can_remove': False, 'created_time': '2015-01-19T13:16:03+0000', 'from': {...}, 'id': '888863661153948_889013927805588', 'like_count': 5, 'message': u'\\u6e96\\u78ba\\u4f86\\u8aaa\\uff0c\\u662f\\u6c92\\u5beb\\u9032\\u53bb\\u3002', 'user_likes': False}, {'can_remove': False, 'created_time': '2015-01-19T13:55:20+0000', 'from': {...}, 'id': '888863661153948_889053141135000', 'like_count': 6, 'message': u'\\u4f60\\u628a\\u624b\\u6cd5\\u6413\\u7834\\u4e86\\uff...u524d\\u5728\\u6a19\\u653f\\u5e9c\\u5de5\\u7a0b\\u7684)', 'user_likes': False}, {'can_remove': False, 'created_time': '2015-01-19T17:32:27+0000', 'from': {...}, 'id': '888863661153948_889140694459578', 'like_count': 1, 'message': u'Vincent Huang  \\u5982\\u679c\\u9810\\u7b97\\u4e0d\\...e8\\u7684\\u516c\\u95dc\\u516c\\u53f8\\u5de5\\u4f5c...)', 'user_likes': False}], 'paging': {'cursors': {'after': 'WTI5dGJXVnVkRjlqZFhKemIzSTZPRGc1TVRRd05qazBORFU1TlRjNE9qRTBNakUyT0RnM05EYz0=', 'before': 'WTI5dGJXVnVkRjlqZFhKemIzSTZPRGc0T0RneE1UTTNPREU0T0RZM09qRTBNakUyTkRZek1EQT0='}}}, 'created_time': '2015-01-19T04:43:40+0000', 'from': {'id': '955116411174101', 'name': u'\\u674e\\u627f\\u8b19'}, 'id': '888863661153948_888865324487115', 'like_count': 34, 'likes': {'data': [{'id': '973066252718619', 'name': u'\\u9673\\u6625\\u7f8e'}, {'id': '934495629907836', 'name': u'\\u9ec3\\u93f5\\u53f3'}, {'id': '285024584955249', 'name': 'Grace  Yang'}, {'id': '973821222630583', 'name': 'Shao-Hung Chen'}, {'id': '1584712815073858', 'name': 'Yang  KE'}, {'id': '1425729967720185', 'name': u'\\u590f\\u821f\\u55e3'}, {'id': '1013224652025090', 'name': 'Sofia Lee'}, {'id': '10205347139952231', 'name': 'Tzu-Chen Tsai'}, {'id': '451304701688924', 'name': 'Jeff  Lim'}, {'id': '10205267509463839', 'name': 'Elma Wang'}, {'id': '1037017322981169', 'name': 'Tung Yu Chiang'}, {'id': '10205948925585722', 'name': 'Herman Tseng'}, {'id': '955116411174101', 'name': u'\\u674e\\u627f\\u8b19'}, {'id': '10202883111473863', 'name': 'Eric Tai'}, {'id': '978835055467938', 'name': u'\\u6674\\u8015\\u96e8\\u8b80'}, {'id': '612712912196827', 'name': u'\\u9673\\u79c0\\u6797'}, {'id': '660290424096446', 'name': 'YingWei Cheng'}, {'id': '905080252859120', 'name': 'Yvonne Chen'}, {'id': '744796525618050', 'name': 'Su Xiao Yu'}, {'id': '1041644585851177', 'name': u'\\u9673\\u5fd7\\u4ec1'}, ...], 'paging': {'cursors': {'after': 'MTAyMDYwOTQ2MzM5OTA2NTI=', 'before': 'OTczMDY2MjUyNzE4NjE5'}}}, 'message': u'\\u72d7\\u6c11\\u9ee8\\u6c7a\\u7b56\\u7684\\u6bcf\\u50...u4ec0\\u9ebc\\u610f\\u7fa9\\u5b58\\u5728\\u5462?\\uff3f'}, {'comment_count': 0, 'created_time': '2015-01-19T05:43:33+0000', 'from': {'id': '1543981265870472', 'name': 'Shih Misha'}, 'id': '888863661153948_888880741152240', 'like_count': 31, 'likes': {'data': [{'id': '973066252718619', 'name': u'\\u9673\\u6625\\u7f8e'}, {'id': '10206039332726049', 'name': 'Jui Chu Chang'}, {'id': '10205379696724291', 'name': 'Amy H. T. Lin'}, {'id': '10203851031019050', 'name': 'Bulu Chang'}, {'id': '10203413556372570', 'name': 'Kuowei Hsiao'}, {'id': '958423244168756', 'name': u'\\u856d\\u6dd1\\u82b3'}, {'id': '1020832994611472', 'name': 'Shingstar Tsai'}, {'id': '10153178087999312', 'name': 'Hsin-Chieh Derrick Lin'}, {'id': '953086424710157', 'name': 'Aayo Lee'}, {'id': '938184356216100', 'name': 'Jason Lin'}, {'id': '1031054546909242', 'name': u'\\u9673\\u827e\\u744b'}, {'id': '934495629907836', 'name': u'\\u9ec3\\u93f5\\u53f3'}, {'id': '285024584955249', 'name': 'Grace  Yang'}, {'id': '973821222630583', 'name': 'Shao-Hung Chen'}, {'id': '922680474430890', 'name': 'Sue Ho'}, {'id': '1024453597568995', 'name': 'Anna Wang'}, {'id': '773197449423435', 'name': u'\\u79cb\\u9704'}, {'id': '601293640006467', 'name': u'\\u5ed6\\u6234\\u723e'}, {'id': '10202479270063285', 'name': 'Kao Blue'}, {'id': '1013224652025090', 'name': 'Sofia Lee'}, ...], 'paging': {'cursors': {'after': 'OTA1MDgwMjUyODU5MTIw', 'before': 'OTczMDY2MjUyNzE4NjE5'}}}, 'message': u'\\u6211\\u662f\\u53f0\\u4e2d\\u4eba\\uff0c\\u6c34\\u6e...\\u5c4b\\u88dc\\u52a9\\u624d\\u662f\\u529f\\u5fb7\\u554a'}, {'comment_count': 2, 'comments': {'data': [{'can_remove': False, 'created_time': '2015-01-19T10:32:24+0000', 'from': {...}, 'id': '888863661153948_888959331144381', 'like_count': 7, 'message': u'\\u53f0\\u4e2d\\u706b\\u8eca\\u7ad9\\u65c1\\u908a\\u4e...\\u77e5\\u9053\\u4f55\\u6642\\u624d\\u80fd\\u6539\\u5584', 'user_likes': False}, {'can_remove': False, 'created_time': '2015-01-19T16:52:02+0000', 'from': {...}, 'id': '888863661153948_889120444461603', 'like_count': 1, 'message': u'\\u81fa\\u4e2d\\u706b\\u8eca\\u7ad9\\u9031\\u570d\\u4e...\\u7159\\u7684\\u904a\\u6c11\\u5728\\u6d3b\\u52d5\\u3002', 'user_likes': False}], 'paging': {'cursors': {'after': 'WTI5dGJXVnVkRjlqZFhKemIzSTZPRGc1TVRJd05EUTBORFl4TmpBek9qRTBNakUyT0RZek1qST0=', 'before': 'WTI5dGJXVnVkRjlqZFhKemIzSTZPRGc0T1RVNU16TXhNVFEwTXpneE9qRTBNakUyTmpNMU5EUT0='}}}, 'created_time': '2015-01-19T05:27:01+0000', 'from': {'id': '362355237286052', 'name': u'\\u674e\\u827e\\u502b'}, 'id': '888863661153948_888876501152664', 'like_count': 23, 'likes': {'data': [{'id': '973066252718619', 'name': u'\\u9673\\u6625\\u7f8e'}, {'id': '10205379696724291', 'name': 'Amy H. T. Lin'}, {'id': '10203851031019050', 'name': 'Bulu Chang'}, {'id': '10153057275554831', 'name': 'Qinxuan Lin'}, {'id': '934495629907836', 'name': u'\\u9ec3\\u93f5\\u53f3'}, {'id': '285024584955249', 'name': 'Grace  Yang'}, {'id': '973821222630583', 'name': 'Shao-Hung Chen'}, {'id': '922680474430890', 'name': 'Sue Ho'}, {'id': '1024453597568995', 'name': 'Anna Wang'}, {'id': '773197449423435', 'name': u'\\u79cb\\u9704'}, {'id': '1013224652025090', 'name': 'Sofia Lee'}, {'id': '10153140129037079', 'name': 'James Hung'}, {'id': '619240294874565', 'name': 'Huang  Jason'}, {'id': '1034201149942181', 'name': u'\\u9673\\u82af'}, {'id': '818285204906093', 'name': u'\\u9673\\u7dad\\u5fb9'}, {'id': '362355237286052', 'name': u'\\u674e\\u827e\\u502b'}, {'id': '968037586541397', 'name': 'Sandy Tung'}, {'id': '859079734153321', 'name': u'\\u5409\\u7530'}, {'id': '1427015434257693', 'name': u'\\u5468\\u5f8c\\u88d4'}, {'id': '592098724267435', 'name': 'Felicity Lin'}, ...], 'paging': {'cursors': {'after': 'OTQzOTQ4MTI1NjIzNDQ3', 'before': 'OTczMDY2MjUyNzE4NjE5'}}}, 'message': u'\\u7528\\u90a3\\u4e9b\\u9322\\u628a\\u53f0\\u4e2d\\u76...u4eba\\u884c\\u9053\\u7684\\u6b98\\u7834\\u4e0d\\u582a!'}, {'comment_count': 4, 'comments': {'data': [{'can_remove': False, 'created_time': '2015-01-19T06:00:59+0000', 'from': {...}, 'id': '888863661153948_888884934485154', 'like_count': 6, 'message': u'\\u770b\\u770b\\u5176\\u4ed6\\u4f5c\\u54c1 \\u4e5f\\u6bd4\\u7b2c\\u4e00\\u540d\\u4f5c\\u54c1\\u597d', 'user_likes': False}, {'can_remove': False, 'created_time': '2015-01-19T06:03:57+0000', 'from': {...}, 'id': '888863661153948_888885537818427', 'like_count': 7, 'message': u'\\u7532\\u8cfd\\u52d5\\u505a\\u5de5\\u7a0b\\u5c31\\u66...84cb\\uff0c\\u6211\\u770b15\\u5104\\u90fd\\u4e0d\\u7528', 'user_likes': False}, {'can_remove': False, 'created_time': '2015-01-19T06:22:21+0000', 'from': {...}, 'id': '888863661153948_888889807818000', 'like_count': 3, 'message': u'\\u8d8a\\u597d\\u84cb\\u7684\\u7576\\u7136\\u8981\\u7b...\\u5bb6\\u624d\\u53ef\\u4ee5\\u62ff\\u8d8a\\u591a\\u9322', 'user_likes': False}, {'can_remove': False, 'created_time': '2015-01-19T06:39:35+0000', 'from': {...}, 'id': '888863661153948_888893817817599', 'like_count': 4, 'message': u'\\u8a55\\u5be9\\u5718\\u6fc0\\u70c8\\u722d\\u8faf\\uff...f\\u8a50\\u6b3a\\u55ce???\\u72d7\\u9ee8\\u8ca0\\u8cac!!', 'user_likes': False}], 'paging': {'cursors': {'after': 'WTI5dGJXVnVkRjlqZFhKemIzSTZPRGc0T0Rrek9ERTNPREUzTlRrNU9qRTBNakUyTkRrMU56VT0=', 'before': 'WTI5dGJXVnVkRjlqZFhKemIzSTZPRGc0T0RnME9UTTBORGcxTVRVME9qRTBNakUyTkRjeU5Uaz0='}}}, 'created_time': '2015-01-19T04:51:14+0000', 'from': {'id': '785363684873429', 'name': 'Jun De'}, 'id': '888863661153948_888867237820257', 'like_count': 18, 'likes': {'data': [{'id': '973066252718619', 'name': u'\\u9673\\u6625\\u7f8e'}, {'id': '1030276053653450', 'name': u'\\u795d\\u9298\\u4f51'}, {'id': '1567613636819862', 'name': 'Xuang Xiao'}, {'id': '1039739109374824', 'name': 'Rex Wu'}, {'id': '10202479270063285', 'name': 'Kao Blue'}, {'id': '1013224652025090', 'name': 'Sofia Lee'}, {'id': '451304701688924', 'name': 'Jeff  Lim'}, {'id': '10206213685612090', 'name': 'Julius Lim'}, {'id': '1559184157686901', 'name': 'Jimmy Tsai'}, {'id': '1042912725724418', 'name': u'\\u6797\\u6f6e\\u6176'}, {'id': '405873229584015', 'name': 'Julie Chou'}, {'id': '906448649376931', 'name': u'\\u90ed\\u6587\\u9d3b'}, {'id': '905080252859120', 'name': 'Yvonne Chen'}, {'id': '10202373644622083', 'name': 'Ming Hung Hsieh'}, {'id': '10202553117667700', 'name': u'\\u6c5f\\u4fe1\\u5b8f'}, {'id': '10205830597821301', 'name': 'Rick Lee'}, {'id': '1607890712768343', 'name': u'\\u4f0d\\u73fe\\u6dbc'}, {'id': '939138479463623', 'name': u'\\u5f35\\u5bb8\\u745c'}], 'paging': {'cursors': {'after': 'OTM5MTM4NDc5NDYzNjIz', 'before': 'OTczMDY2MjUyNzE4NjE5'}}}, 'message': u'http://forgemind.net/phpbb/viewtopic.php?t=218...\\u9df9\\u67b6\\u9084\\u4e0d\\u5982\\u4e0d\\u8981\\u84cb'}, {'comment_count': 0, 'created_time': '2015-01-19T04:49:50+0000', 'from': {'id': '1441030569520839', 'name': 'ChengYi Chen'}, 'id': '888863661153948_888866897820291', 'like_count': 14, 'likes': {'data': [{'id': '844584282280437', 'name': 'Fish Tsai'}, {'id': '973066252718619', 'name': u'\\u9673\\u6625\\u7f8e'}, {'id': '10203851031019050', 'name': 'Bulu Chang'}, {'id': '1567613636819862', 'name': 'Xuang Xiao'}, {'id': '10202479270063285', 'name': 'Kao Blue'}, {'id': '1013224652025090', 'name': 'Sofia Lee'}, {'id': '451304701688924', 'name': 'Jeff  Lim'}, {'id': '10203741873851672', 'name': 'Steffen Nien'}, {'id': '405873229584015', 'name': 'Julie Chou'}, {'id': '1543400269275087', 'name': u'\\u6d2a\\u65ed\\u797a'}, {'id': '660290424096446', 'name': 'YingWei Cheng'}, {'id': '966286183389116', 'name': u'\\u6797\\u4fe1\\u4ef2'}, {'id': '939138479463623', 'name': u'\\u5f35\\u5bb8\\u745c'}], 'paging': {'cursors': {'after': 'OTM5MTM4NDc5NDYzNjIz', 'before': 'ODQ0NTg0MjgyMjgwNDM3'}}}, 'message': u'\\u570b\\u6c11\\u9ee8\\u4e0d\\u5012\\uff0c\\u53f0\\u7063\\u4e0d\\u6703\\u597d\\u3002'}, {'comment_count': 0, 'created_time': '2015-01-19T04:55:01+0000', 'from': {'id': '793125854104587', 'name': u'\\u842c\\u7f8e\\u5a25'}, 'id': '888863661153948_888868221153492', 'like_count': 13, 'likes': {'data': [{'id': '973066252718619', 'name': u'\\u9673\\u6625\\u7f8e'}, {'id': '10206039332726049', 'name': 'Jui Chu Chang'}, {'id': '922680474430890', 'name': 'Sue Ho'}, {'id': '1013224652025090', 'name': 'Sofia Lee'}, {'id': '592098724267435', 'name': 'Felicity Lin'}, {'id': '968300166521268', 'name': 'Felicia Pai'}, {'id': '744796525618050', 'name': 'Su Xiao Yu'}, {'id': '10205830597821301', 'name': 'Rick Lee'}, {'id': '1543400269275087', 'name': u'\\u6d2a\\u65ed\\u797a'}, {'id': '451185718364834', 'name': u'\\u5f35\\u7389\\u7434'}, {'id': '939138479463623', 'name': u'\\u5f35\\u5bb8\\u745c'}, {'id': '813489465388380', 'name': 'Vincent Chen'}], 'paging': {'cursors': {'after': 'ODEzNDg5NDY1Mzg4Mzgw', 'before': 'OTczMDY2MjUyNzE4NjE5'}}}, 'message': u'\\u628a\\u9019\\u4e9b\\u9322\\u62ff\\u4f86\\u84cb\\u6a...u5712\\u548c\\u7da0\\u5316\\u4f86\\u7684\\u5be6\\u5728!'}, {'comment_count': 0, 'created_time': '2015-01-19T04:45:23+0000', 'from': {'id': '1585437838334908', 'name': u'\\u5433\\u6c38\\u8aa0'}, 'id': '888863661153948_888865844487063', 'like_count': 13, 'likes': {'data': [{'id': '844584282280437', 'name': 'Fish Tsai'}, {'id': '973066252718619', 'name': u'\\u9673\\u6625\\u7f8e'}, {'id': '922680474430890', 'name': 'Sue Ho'}, {'id': '1013224652025090', 'name': 'Sofia Lee'}, {'id': '451304701688924', 'name': 'Jeff  Lim'}, {'id': '10206213685612090', 'name': 'Julius Lim'}, {'id': '10205830597821301', 'name': 'Rick Lee'}, {'id': '939138479463623', 'name': u'\\u5f35\\u5bb8\\u745c'}, {'id': '793125854104587', 'name': u'\\u842c\\u7f8e\\u5a25'}, {'id': '1441030569520839', 'name': 'ChengYi Chen'}, {'id': '1543400269275087', 'name': u'\\u6d2a\\u65ed\\u797a'}, {'id': '1041626415854037', 'name': u'\\u5289\\u6dd1\\u5a1f'}], 'paging': {'cursors': {'after': 'MTA0MTYyNjQxNTg1NDAzNw==', 'before': 'ODQ0NTg0MjgyMjgwNDM3'}}}, 'message': u'\\u597d\\u5927\\u559c\\u529f\\u3001\\u7121\\u6240\\u88e8\\u76ca\\u7684\\u5efa\\u8a2d\\uff01'}, {'comment_count': 0, 'created_time': '2015-01-19T05:50:26+0000', 'from': {'id': '1059616257385966', 'name': 'Ming Yuan Yang'}, 'id': '888863661153948_888882561152058', 'like_count': 10, 'likes': {'data': [{'id': '973066252718619', 'name': u'\\u9673\\u6625\\u7f8e'}, {'id': '450160918473271', 'name': 'Youze Lin'}, {'id': '1013224652025090', 'name': 'Sofia Lee'}, {'id': '451304701688924', 'name': 'Jeff  Lim'}, {'id': '10206213685612090', 'name': 'Julius Lim'}, {'id': '939138479463623', 'name': u'\\u5f35\\u5bb8\\u745c'}, {'id': '1546401518944689', 'name': u'\\u5433\\u8ed2\\u777f'}, {'id': '660290424096446', 'name': 'YingWei Cheng'}, {'id': '905080252859120', 'name': 'Yvonne Chen'}], 'paging': {'cursors': {'after': 'OTA1MDgwMjUyODU5MTIw', 'before': 'OTczMDY2MjUyNzE4NjE5'}}}, 'message': u'\\u300c\\u932f\\u8aa4\\u6c7a\\u7b56\\u6bd4\\u8caa\\u6c61\\u66f4\\u53ef\\u6015\\u3002\\u300d\\u8b9a\\u5566!'}, {'comment_count': 0, 'created_time': '2015-01-19T05:48:18+0000', 'from': {'id': '968544729846084', 'name': 'Leesyan Huang'}, 'id': '888863661153948_888882061152108', 'like_count': 9, 'likes': {'data': [{'id': '973066252718619', 'name': u'\\u9673\\u6625\\u7f8e'}, {'id': '10206039332726049', 'name': 'Jui Chu Chang'}, {'id': '1013224652025090', 'name': 'Sofia Lee'}, {'id': '451304701688924', 'name': 'Jeff  Lim'}, {'id': '1034201149942181', 'name': u'\\u9673\\u82af'}, {'id': '968037586541397', 'name': 'Sandy Tung'}, {'id': '939138479463623', 'name': u'\\u5f35\\u5bb8\\u745c'}, {'id': '1543400269275087', 'name': u'\\u6d2a\\u65ed\\u797a'}], 'paging': {'cursors': {'after': 'MTU0MzQwMDI2OTI3NTA4Nw==', 'before': 'OTczMDY2MjUyNzE4NjE5'}}}, 'message': u'\\u80fd\\u70ba\\u767e\\u59d3\\u628a\\u95dc,\\u8b9a!! ...8cad\\u800c\\u975e\\u8a0e\\u597d\\u7684\\u9a19\\u5c40..'}, {'comment_count': 0, 'created_time': '2015-01-19T05:12:15+0000', 'from': {'id': '967298726614762', 'name': 'Toshihiko Liu'}, 'id': '888863661153948_888872634486384', 'like_count': 9, 'likes': {'data': [{'id': '10206039332726049', 'name': 'Jui Chu Chang'}, {'id': '1013224652025090', 'name': 'Sofia Lee'}, {'id': '619240294874565', 'name': 'Huang  Jason'}, {'id': '10206213685612090', 'name': 'Julius Lim'}, {'id': '10202601926449829', 'name': u'\\u9673\\u59ff\\u541b'}, {'id': '592098724267435', 'name': 'Felicity Lin'}, {'id': '10202553117667700', 'name': u'\\u6c5f\\u4fe1\\u5b8f'}, {'id': '10205830597821301', 'name': 'Rick Lee'}, {'id': '1543400269275087', 'name': u'\\u6d2a\\u65ed\\u797a'}], 'paging': {'cursors': {'after': 'MTU0MzQwMDI2OTI3NTA4Nw==', 'before': 'MTAyMDYwMzkzMzI3MjYwNDk='}}}, 'message': u'150E-3E=147E\\u6295\\u5165\\u6377\\u904b\\u5de5\\u7a0b'}, {'comment_count': 0, 'created_time': '2015-01-19T05:34:44+0000', 'from': {'id': '922137497805488', 'name': u'\\u9ec3\\u6f22\\u8ce2'}, 'id': '888863661153948_888878474485800', 'like_count': 8, 'likes': {'data': [{'id': '10204898308751060', 'name': 'Yen-Chih Fang'}, {'id': '1013224652025090', 'name': 'Sofia Lee'}, {'id': '451304701688924', 'name': 'Jeff  Lim'}, {'id': '939138479463623', 'name': u'\\u5f35\\u5bb8\\u745c'}, {'id': '1427015434257693', 'name': u'\\u5468\\u5f8c\\u88d4'}, {'id': '592098724267435', 'name': 'Felicity Lin'}, {'id': '905080252859120', 'name': 'Yvonne Chen'}, {'id': '451185718364834', 'name': u'\\u5f35\\u7389\\u7434'}], 'paging': {'cursors': {'after': 'NDUxMTg1NzE4MzY0ODM0', 'before': 'MTAyMDQ4OTgzMDg3NTEwNjA='}}}, 'message': u'\\u82b115000000000(\\u5e7e\\u500b0\\u554a\\u6e3e\\u8...u5712\\u8981\\u5e79\\u561b\\u4e86\\u80e1\\u5fd7\\u5f37?'}, ...], 'paging': {'cursors': {'after': 'NzE=', 'before': 'OTU='}, 'next': 'https://graph.facebook.com/v2.2/888863661153948/...ljT5WwQDclOxnzAEqlvqccKDai9T8XmSAdb0QI5a&limit=25', 'previous': 'https://graph.facebook.com/v2.2/888863661153948/...AEqlvqccKDai9T8XmSAdb0QI5a&limit=25&before=OTU%3D'}}"
p169
ssg75
I1778
sg76
(dp170
I1773
S'                    fbdb.commit()'
p171
sI1774
S'                    #row_json = fbdb(fbdb.news_comments.fid==cid).select().first().as_json()'
p172
sI1775
S"                    r_message='successfully added the comment into DB'"
p173
sI1776
S'                if next_p <> None:'
p174
sI1777
S"                    posts = graph.request(news_fid + '/comments', args={'fields':'likes.limit(1000),comments.limit(1000),message,from,id,like_count,created_time,parent,comment_count','after': next_p,'limit':20})"
p175
sI1778
S"                    print 'post=   '+ str(posts)"
p176
sI1779
S'                    delay()'
p177
sI1780
S''
sI1781
S'    except GraphAPIError, e:'
p178
sI1782
S'        raise'
p179
ssg88
S"(fids='1016340705062516,600808040019726,920301688010698...4,724865657627709,680501485380396,776344072449017')"
p180
sg90
S'getGroupNewsComment'
p181
sasS'pyver'
p182
S'Python 2.7.7: /usr/local/opt/python/bin/python2.7 (prefix: /usr/local/Cellar/python/2.7.7_1/Frameworks/Python.framework/Versions/2.7)'
p183
sS'session'
p184
g62
(S's\x9e\x0b\x00\x00<div><table><tr><td style="font-weight:bold;vertical-align:top;">auth</td><td style="vertical-align:top;">:</td><td><div><table><tr><td style="font-weight:bold;vertical-align:top;">expiration</td><td style="vertical-align:top;">:</td><td><div>3600</div></td></tr><tr><td style="font-weight:bold;vertical-align:top;">hmac_key</td><td style="vertical-align:top;">:</td><td><div>65fafeb1-afb9-4466-bcca-e2cb66b95874</div></td></tr><tr><td style="font-weight:bold;vertical-align:top;">last_visit</td><td style="vertical-align:top;">:</td><td><div>datetime.datetime(2015, 3, 5, 16, 46, 5, 625400)</div></td></tr><tr><td style="font-weight:bold;vertical-align:top;">remember</td><td style="vertical-align:top;">:</td><td><div>False</div></td></tr><tr><td style="font-weight:bold;vertical-align:top;">user</td><td style="vertical-align:top;">:</td><td><div><table><tr><td style="font-weight:bold;vertical-align:top;">first_name</td><td style="vertical-align:top;">:</td><td><div>Chih-Yuan</div></td></tr><tr><td style="font-weight:bold;vertical-align:top;">id</td><td style="vertical-align:top;">:</td><td><div>5L</div></td></tr><tr><td style="font-weight:bold;vertical-align:top;">last_name</td><td style="vertical-align:top;">:</td><td><div>Chen</div></td></tr><tr><td style="font-weight:bold;vertical-align:top;">registration_id</td><td style="vertical-align:top;">:</td><td><div>10152723143866527</div></td></tr><tr><td style="font-weight:bold;vertical-align:top;">registration_key</td><td style="vertical-align:top;">:</td><td><div></div></td></tr><tr><td style="font-weight:bold;vertical-align:top;">username</td><td style="vertical-align:top;">:</td><td><div>10152723143866527</div></td></tr></table></div></td></tr><tr><td style="font-weight:bold;vertical-align:top;">user_groups</td><td style="vertical-align:top;">:</td><td><div><table><tr><td style="font-weight:bold;vertical-align:top;">5</td><td style="vertical-align:top;">:</td><td><div>user_5</div></td></tr></table></div></td></tr></table></div></td></tr><tr><td style="font-weight:bold;vertical-align:top;">flash</td><td style="vertical-align:top;">:</td><td><div>None</div></td></tr><tr><td style="font-weight:bold;vertical-align:top;">redirect_uri</td><td style="vertical-align:top;">:</td><td><div>http://localhost:8088/fbbrt/default/user/login</div></td></tr><tr><td style="font-weight:bold;vertical-align:top;">token</td><td style="vertical-align:top;">:</td><td><div><table><tr><td style="font-weight:bold;vertical-align:top;">access_token</td><td style="vertical-align:top;">:</td><td><div>CAAPXPqLzG54BALIC9dtBnCFLjdHcvgiAMgaYLcOoHRik1jq8v62RO4rlgZCsLZCqQr10jzhbD32ZBpuQRbFJWu1vMSka28FpomDZBoSTJcQmFKw38RyCliIZAWcq2M3TmlcZABxNhD4m4JIiNZCnfZA1RxUe7LRn9529Ch6HWgszm3vrljT5WwQDclOxnzAEqlvqccKDai9T8XmSAdb0QI5a</div></td></tr><tr><td style="font-weight:bold;vertical-align:top;">expires</td><td style="vertical-align:top;">:</td><td><div>1430669216.547979</div></td></tr></table></div></td></tr></table></div>'
tRp185
sS'etype'
p186
S"<type 'exceptions.IOError'>"
p187
sS'date'
p188
S'Thu Mar  5 16:53:09 2015'
p189
sS'response'
p190
g62
(S's\xa0#\x00\x00<div><table><tr><td style="font-weight:bold;vertical-align:top;">body</td><td style="vertical-align:top;">:</td><td><div>&lt;cStringIO.StringO object at 0x162ed3810&gt;</div></td></tr><tr><td style="font-weight:bold;vertical-align:top;">cookies</td><td style="vertical-align:top;">:</td><td><div><table><tr><td style="font-weight:bold;vertical-align:top;">session_id_fbbrt</td><td style="vertical-align:top;">:</td><td><div>127.0.0.1-c4916731-eb22-42de-8715-af19dd7bd638<table><tr><td style="font-weight:bold;vertical-align:top;">comment</td><td style="vertical-align:top;">:</td><td><div></div></td></tr><tr><td style="font-weight:bold;vertical-align:top;">domain</td><td style="vertical-align:top;">:</td><td><div></div></td></tr><tr><td style="font-weight:bold;vertical-align:top;">expires</td><td style="vertical-align:top;">:</td><td><div></div></td></tr><tr><td style="font-weight:bold;vertical-align:top;">httponly</td><td style="vertical-align:top;">:</td><td><div></div></td></tr><tr><td style="font-weight:bold;vertical-align:top;">max-age</td><td style="vertical-align:top;">:</td><td><div></div></td></tr><tr><td style="font-weight:bold;vertical-align:top;">path</td><td style="vertical-align:top;">:</td><td><div>/</div></td></tr><tr><td style="font-weight:bold;vertical-align:top;">secure</td><td style="vertical-align:top;">:</td><td><div></div></td></tr><tr><td style="font-weight:bold;vertical-align:top;">version</td><td style="vertical-align:top;">:</td><td><div></div></td></tr></table></div></td></tr></table></div></td></tr><tr><td style="font-weight:bold;vertical-align:top;">delimiters</td><td style="vertical-align:top;">:</td><td><div><table><tr><td><div>{{</div></td></tr><tr><td><div>}}</div></td></tr></table></div></td></tr><tr><td style="font-weight:bold;vertical-align:top;">files</td><td style="vertical-align:top;">:</td><td><div><table></table></div></td></tr><tr><td style="font-weight:bold;vertical-align:top;">flash</td><td style="vertical-align:top;">:</td><td><div>Logged in</div></td></tr><tr><td style="font-weight:bold;vertical-align:top;">generic_patterns</td><td style="vertical-align:top;">:</td><td><div><table></table></div></td></tr><tr><td style="font-weight:bold;vertical-align:top;">google_analytics_id</td><td style="vertical-align:top;">:</td><td><div>None</div></td></tr><tr><td style="font-weight:bold;vertical-align:top;">headers</td><td style="vertical-align:top;">:</td><td><div><table><tr><td style="font-weight:bold;vertical-align:top;">X-Powered-By</td><td style="vertical-align:top;">:</td><td><div>web2py</div></td></tr></table></div></td></tr><tr><td style="font-weight:bold;vertical-align:top;">logo</td><td style="vertical-align:top;">:</td><td><div><a class="brand" href="http://www.web2py.com/"><b>web<span>2</span>py</b>&trade;&nbsp;</a></div></td></tr><tr><td style="font-weight:bold;vertical-align:top;">menu</td><td style="vertical-align:top;">:</td><td><div><table><tr><td><div><table><tr><td><div>BRT\xe6\x96\xb0\xe8\x81\x9e</div></td></tr><tr><td><div>False</div></td></tr><tr><td><div>/fbbrt/default/display_news</div></td></tr><tr><td><div><table><tr><td><div><table><tr><td><div>\xe5\x8d\xb3\xe6\x99\x82\xe6\x96\xb0\xe8\x81\x9e</div></td></tr><tr><td><div>False</div></td></tr><tr><td><div>/fbbrt/default/realtime_news</div></td></tr></table></div></td></tr><tr><td><div><table><tr><td><div>\xe6\x9c\xac\xe9\x80\xb1\xe6\x9c\x80\xe7\x86\xb1\xe9\x96\x80</div></td></tr><tr><td><div>False</div></td></tr><tr><td><div>/fbbrt/default/Hottest_news</div></td></tr></table></div></td></tr><tr><td><div><table><tr><td><div>\xe6\xad\xb7\xe5\x8f\xb2\xe6\x96\xb0\xe8\x81\x9e\xe6\x8e\x92\xe5\x90\x8d</div></td></tr><tr><td><div>False</div></td></tr><tr><td><div>/fbbrt/default/History_news</div></td></tr></table></div></td></tr></table></div></td></tr></table></div></td></tr><tr><td><div><table><tr><td><div>\xe7\xb6\xb2\xe5\x8f\x8b</div></td></tr><tr><td><div>False</div></td></tr><tr><td><div>/fbbrt/default/display_people</div></td></tr><tr><td><div><table><tr><td><div><table><tr><td><div>\xe6\x9c\x80\xe6\x96\xb0\xe5\x9b\x9e\xe8\xa6\x86</div></td></tr><tr><td><div>False</div></td></tr><tr><td><div>/fbbrt/default/addPeople</div></td></tr></table></div></td></tr></table></div></td></tr></table></div></td></tr><tr><td><div><table><tr><td><div>Page</div></td></tr><tr><td><div>False</div></td></tr><tr><td><div>/fbbrt/default/display_page</div></td></tr><tr><td><div><table><tr><td><div><table><tr><td><div>Page Count</div></td></tr><tr><td><div>False</div></td></tr><tr><td><div>/fbbrt/default/index</div></td></tr></table></div></td></tr><tr><td><div><table><tr><td><div>Add Page</div></td></tr><tr><td><div>False</div></td></tr><tr><td><div>/fbbrt/default/addPage</div></td></tr></table></div></td></tr></table></div></td></tr></table></div></td></tr><tr><td><div><table><tr><td><div>Post</div></td></tr><tr><td><div>False</div></td></tr><tr><td><div>/fbbrt/default/display_post</div></td></tr><tr><td><div><table><tr><td><div><table><tr><td><div>Add Post</div></td></tr><tr><td><div>False</div></td></tr><tr><td><div>/fbbrt/default/addpost</div></td></tr></table></div></td></tr></table></div></td></tr></table></div></td></tr></table></div></td></tr><tr><td style="font-weight:bold;vertical-align:top;">meta</td><td style="vertical-align:top;">:</td><td><div><table><tr><td style="font-weight:bold;vertical-align:top;">author</td><td style="vertical-align:top;">:</td><td><div>Your Name &lt;you@example.com&gt;</div></td></tr><tr><td style="font-weight:bold;vertical-align:top;">description</td><td style="vertical-align:top;">:</td><td><div>a cool new app</div></td></tr><tr><td style="font-weight:bold;vertical-align:top;">generator</td><td style="vertical-align:top;">:</td><td><div>Web2py Web Framework</div></td></tr><tr><td style="font-weight:bold;vertical-align:top;">keywords</td><td style="vertical-align:top;">:</td><td><div>web2py, python, framework</div></td></tr></table></div></td></tr><tr><td style="font-weight:bold;vertical-align:top;">models_to_run</td><td style="vertical-align:top;">:</td><td><div><table><tr><td><div>^\\w+\\.py$</div></td></tr><tr><td><div>^newsAPI/\\w+\\.py$</div></td></tr><tr><td><div>^newsAPI/test2/\\w+\\.py$</div></td></tr></table></div></td></tr><tr><td style="font-weight:bold;vertical-align:top;">postprocessing</td><td style="vertical-align:top;">:</td><td><div><table></table></div></td></tr><tr><td style="font-weight:bold;vertical-align:top;">session_client</td><td style="vertical-align:top;">:</td><td><div>127.0.0.1</div></td></tr><tr><td style="font-weight:bold;vertical-align:top;">session_cookie_compression_level</td><td style="vertical-align:top;">:</td><td><div>None</div></td></tr><tr><td style="font-weight:bold;vertical-align:top;">session_cookie_expires</td><td style="vertical-align:top;">:</td><td><div>None</div></td></tr><tr><td style="font-weight:bold;vertical-align:top;">session_cookie_key</td><td style="vertical-align:top;">:</td><td><div>None</div></td></tr><tr><td style="font-weight:bold;vertical-align:top;">session_data_name</td><td style="vertical-align:top;">:</td><td><div>session_data_fbbrt</div></td></tr><tr><td style="font-weight:bold;vertical-align:top;">session_file</td><td style="vertical-align:top;">:</td><td><div>&lt;open file &#x27;/Users/logyuan/Documents/web2py/applications/fbbrt/sessions/127.0.0.1-c4916731-eb22-42de-8715-af19dd7bd638&#x27;, mode &#x27;rb+&#x27; at 0x15db81db0&gt;</div></td></tr><tr><td style="font-weight:bold;vertical-align:top;">session_filename</td><td style="vertical-align:top;">:</td><td><div>/Users/logyuan/Documents/web2py/applications/fbbrt/sessions/127.0.0.1-c4916731-eb22-42de-8715-af19dd7bd638</div></td></tr><tr><td style="font-weight:bold;vertical-align:top;">session_hash</td><td style="vertical-align:top;">:</td><td><div>40174ef7a5daef42157c96fe8fec6ee9</div></td></tr><tr><td style="font-weight:bold;vertical-align:top;">session_id</td><td style="vertical-align:top;">:</td><td><div>127.0.0.1-c4916731-eb22-42de-8715-af19dd7bd638</div></td></tr><tr><td style="font-weight:bold;vertical-align:top;">session_id_name</td><td style="vertical-align:top;">:</td><td><div>session_id_fbbrt</div></td></tr><tr><td style="font-weight:bold;vertical-align:top;">session_locked</td><td style="vertical-align:top;">:</td><td><div>True</div></td></tr><tr><td style="font-weight:bold;vertical-align:top;">session_masterapp</td><td style="vertical-align:top;">:</td><td><div>fbbrt</div></td></tr><tr><td style="font-weight:bold;vertical-align:top;">session_new</td><td style="vertical-align:top;">:</td><td><div>False</div></td></tr><tr><td style="font-weight:bold;vertical-align:top;">session_storage_type</td><td style="vertical-align:top;">:</td><td><div>file</div></td></tr><tr><td style="font-weight:bold;vertical-align:top;">status</td><td style="vertical-align:top;">:</td><td><div>200</div></td></tr><tr><td style="font-weight:bold;vertical-align:top;">subtitle</td><td style="vertical-align:top;">:</td><td><div>customize me!</div></td></tr><tr><td style="font-weight:bold;vertical-align:top;">title</td><td style="vertical-align:top;">:</td><td><div>Fbbrt</div></td></tr><tr><td style="font-weight:bold;vertical-align:top;">view</td><td style="vertical-align:top;">:</td><td><div>newsAPI/test2.html</div></td></tr></table></div>'
tRp191
sS'locals'
p192
(dp193
S'uid'
p194
S"'451185718364834'"
p195
sS'results'
p196
S"{'1016340705062516': {'data': [{'comment_count': 0, 'created_time': '2015-02-12T00:57:04+0000', 'from': {'id': '797244150353705', 'name': u'\\u856d\\u7d71\\u6d32'}, 'id': '1016340705062516_1016367821726471', 'like_count': 0, 'message': u'\\u5730\\u76e1\\u5176\\u5229....\\u65e2\\u7136\\u516c\\u5bb6\\u7121\\u529b\\u7ba1\\u7406'}], 'paging': {'cursors': {'after': 'MQ==', 'before': 'MQ=='}}}, '1051414048217437': {'data': [{'comment_count': 1, 'comments': {'data': [{...}], 'paging': {'cursors': {...}}}, 'created_time': '2015-01-22T02:22:24+0000', 'from': {'id': '779422085456397', 'name': u'\\u4f55\\u8ae7'}, 'id': '1051414048217437_1051530288205813', 'like_count': 1, 'likes': {'data': [{...}], 'paging': {'cursors': {...}}}, 'message': u'\\u53c8\\u4e00\\u4f8b\\u524d\\u671d\\u5f8c\\u907a\\u75...\\u300c\\u58c5\\u300d\\u4eba\\u81ea\\u585e\\u4e4b\\u3002'}, {'comment_count': 0, 'created_time': '2015-01-22T11:06:13+0000', 'from': {'id': '632706116875915', 'name': 'Chris Redfield'}, 'id': '1051414048217437_1051755171516658', 'like_count': 0, 'message': u'\\u7de8\\u5217\\u4e94\\u767e\\u842c\\u5143\\u9810\\u7b...\\u591a\\u5c31\\u4e0d\\u7576\\u4e00\\u56de\\u4e8b\\u3002'}], 'paging': {'cursors': {'after': 'MQ==', 'before': 'Mg=='}}}, '547134395389778': {'data': [{'comment_count': 0, 'created_time': '2015-01-22T01:56:21+0000', 'from': {'category': 'Just for fun', 'id': '655615104555809', 'name': u'\\u8c5a\\u8c55\\u4e4b\\u5712'}, 'id': '547134395389778_547202658716285', 'like_count': 7, 'likes': {'data': [{...}, {...}, {...}, {...}, {...}, {...}, {...}], 'paging': {'cursors': {...}}}, 'message': u'BRT\\u4e58\\u8eca\\u7d93\\u9a57\\u5206\\u4eab\\uff1a\\...8ab0\\u5728\\u8ca0\\u8cac\\uff1f\\n\\u4ee5\\u4e0a\\u3002'}, {'comment_count': 0, 'created_time': '2015-01-22T00:25:38+0000', 'from': {'id': '10205335627417689', 'name': 'S-ching Jan'}, 'id': '547134395389778_547187208717830', 'like_count': 6, 'likes': {'data': [{...}, {...}, {...}, {...}, {...}], 'paging': {'cursors': {...}}}, 'message': u'\\u62c6\\u4e86\\u525b\\u597d\\u9806\\u4fbf\\u6253\\u623f'}, {'comment_count': 0, 'created_time': '2015-01-21T23:34:15+0000', 'from': {'id': '1038748496142459', 'name': 'Leon Lin'}, 'id': '547134395389778_547174175385800', 'like_count': 3, 'likes': {'data': [{...}, {...}, {...}], 'paging': {'cursors': {...}}}, 'message': u'\\u62c6\\u4e86\\u4ea4\\u901a\\u597d\\u624d\\u6703\\u6f32'}, {'comment_count': 1, 'comments': {'data': [{...}], 'paging': {'cursors': {...}}}, 'created_time': '2015-01-22T01:48:05+0000', 'from': {'id': '1592987767584496', 'name': 'Chen  Dennis'}, 'id': '547134395389778_547201055383112', 'like_count': 3, 'likes': {'data': [{...}, {...}, {...}], 'paging': {'cursors': {...}}}, 'message': u'\\u7559\\u8457\\uff0c\\u597d\\u7528\\u7684\\u8a71\\uff...\\uff0c\\u6709\\u4f55\\u9032\\u6b65\\u53ef\\u8a00\\u3002'}, {'comment_count': 0, 'created_time': '2015-01-21T23:37:13+0000', 'from': {'id': '934792979873733', 'name': 'Tony Cheng'}, 'id': '547134395389778_547175025385715', 'like_count': 2, 'likes': {'data': [{...}, {...}], 'paging': {'cursors': {...}}}, 'message': u'\\u5927\\u800c\\u7121\\u7576\\u7684BRT\\uff0c\\u62c6\\...ef\\u4ee5\\u518d\\u6f32\\u4e00\\u6ce2\\u5440....\\uff01'}, {'comment_count': 0, 'created_time': '2015-01-22T03:42:23+0000', 'from': {'id': '794359240652507', 'name': u'\\u8521\\u65fa\\u9f8d'}, 'id': '547134395389778_547220978714453', 'like_count': 2, 'likes': {'data': [{...}, {...}], 'paging': {'cursors': {...}}}, 'message': u'\\u4ea4\\u901a\\u5730\\u96f7\\n\\u8a72\\u6539\\u5c31\\u...\\u8003\\u616e\\u623f\\u5730\\u7522\\u696d\\u52d9\\uff1f'}, {'comment_count': 0, 'created_time': '2015-01-22T05:33:32+0000', 'from': {'id': '416687828497900', 'name': u'\\u5f90\\u4fca\\u96c4'}, 'id': '547134395389778_547245958711955', 'like_count': 1, 'likes': {'data': [{...}], 'paging': {'cursors': {...}}}, 'message': u'\\u9322\\u65e2\\u7136\\u5df2\\u7d93\\u82b1\\u4e86\\uff...\\u77ed\\uff0c\\u4e00\\u5e74\\u518d\\u8aaa\\u5427\\uff01'}, {'comment_count': 0, 'created_time': '2015-01-22T06:36:37+0000', 'from': {'id': '842815912421967', 'name': u'\\u8a31\\u667a\\u582f'}, 'id': '547134395389778_547255315377686', 'like_count': 1, 'likes': {'data': [{...}], 'paging': {'cursors': {...}}}, 'message': u'\\u8cb7\\u7684\\u8d7740\\u842c\\u4e00\\u576a\\u7684\\u4eba,\\u9700\\u8981\\u642dBRT???\\u9b3c\\u5566~'}, {'comment_count': 2, 'comments': {'data': [{...}, {...}], 'paging': {'cursors': {...}}}, 'created_time': '2015-01-22T07:06:59+0000', 'from': {'id': '902255103165750', 'name': 'Jen JP'}, 'id': '547134395389778_547259795377238', 'like_count': 0, 'message': u'BRT\\u8eca\\u8f1b\\u7684\\u78ba\\u592a\\u9577 \\u5019...\\u4ea4\\u901a\\u516c\\u8eca\\u8981\\u5148\\u6539\\u5584'}], 'paging': {'cursors': {'after': 'MQ==', 'before': 'OQ=='}}}, '600808040019726': {'data': [{'comment_count': 0, 'created_time': '2015-02-15T00:41:54+0000', 'from': {'id': '441046176059924', 'name': 'Jenhu  Wang'}, 'id': '600808040019726_601063363327527', 'like_count': 1, 'likes': {'data': [{...}], 'paging': {'cursors': {...}}}, 'message': u'BRT\\u6211\\u5c08\\u7a0b\\u53bb\\u8a66\\u4e58\\u904e\\...\\u662f\\u70ba\\u5716\\u5229\\u81ea\\u5bb6\\u4eba\\uff1f'}, {'comment_count': 0, 'created_time': '2015-02-15T02:13:51+0000', 'from': {'id': '665670720228377', 'name': u'\\u8087\\u6fa4\\u5f90'}, 'id': '600808040019726_601081233325740', 'like_count': 1, 'likes': {'data': [{...}], 'paging': {'cursors': {...}}}, 'message': u'\\u770b\\u4f86\\u5916\\u7e23\\u5e02\\u7684\\u7092\\u62...\\u624d\\u5c0d\\u5f97\\u8d77\\u53f0\\u4e2d\\u4eba\\u3002'}, {'comment_count': 0, 'created_time': '2015-02-14T18:37:42+0000', 'from': {'id': '1024633747564014', 'name': 'Tommy Lee'}, 'id': '600808040019726_600981930002337', 'like_count': 0, 'message': u'\\u5728\\u53f0\\u7063\\uff0c\\u6240\\u8b02\\u7684\\u30...\\u5c31\\u662f\\u6c11\\u9032\\u9ee8\\u7684\\u4e3b\\u610f'}], 'paging': {'cursors': {'after': 'MQ==', 'before': 'Mw=='}}}, '605062899594609': {'data': [{'comment_count': 0, 'created_time': '2015-01-14T12:33:54+0000', 'from': {'id': '10204066112242186', 'name': 'David Wu'}, 'id': '605062899594609_605071226260443', 'like_count': 4, 'likes': {'data': [{...}, {...}, {...}, {...}], 'paging': {'cursors': {...}}}, 'message': u'\\u72d0\\u72f8 \\u61c9\\u8a72\\u662f\\u5fc3\\u60f3 : ...70b \\u518d\\u505a\\u9ede\\u4e8b\\u60c5\\u5427 !\\uff1f'}, {'comment_count': 0, 'created_time': '2015-01-14T12:29:41+0000', 'from': {'id': '667050130083947', 'name': u'\\u9673\\u660c\\u53cc'}, 'id': '605062899594609_605070582927174', 'like_count': 7, 'likes': {'data': [{...}, {...}, {...}, {...}, {...}, {...}, {...}], 'paging': {'cursors': {...}}}, 'message': u'\\u8001\\u72d0\\u72f8\\u4f5c\\u4e86\\u5341\\u4e09\\u5e...\\u5f9e\\u653f\\u3002\\u81c9\\u76ae\\u5920\\u539a\\u3002'}, {'comment_count': 0, 'created_time': '2015-01-14T11:59:33+0000', 'from': {'id': '10204673948547619', 'name': 'Wei Cheng'}, 'id': '605062899594609_605064299594469', 'like_count': 6, 'likes': {'data': [{...}, {...}, {...}, {...}, {...}, {...}], 'paging': {'cursors': {...}}}, 'message': u'\\u4e00\\u8d77\\u8214\\u5171\\u624d\\u662f\\u771f\\u5427\\uff01'}, {'comment_count': 0, 'created_time': '2015-01-15T00:14:28+0000', 'from': {'id': '862455657148420', 'name': u'\\u66fe\\u5091\\u745e'}, 'id': '605062899594609_605235299577369', 'like_count': 2, 'likes': {'data': [{...}, {...}], 'paging': {'cursors': {...}}}, 'message': u'\\u9802\\u65b0\\u6709\\u99ac\\uff1b\\u65fa\\u4e2d\\u67...\\u7684\\uff0c\\u9019\\u4ee3\\u8868\\u4ec0\\u9ebc\\uff1f'}, {'comment_count': 0, 'created_time': '2015-01-14T13:54:40+0000', 'from': {'id': '645305805598551', 'name': u'\\u6797\\u6cf0\\u5b89'}, 'id': '605062899594609_605090756258490', 'like_count': 2, 'likes': {'data': [{...}, {...}], 'paging': {'cursors': {...}}}, 'message': u'\\u611f\\u52d5\\u4f60\\u59b9'}, {'comment_count': 0, 'created_time': '2015-01-14T13:07:30+0000', 'from': {'id': '1095780840439431', 'name': u'\\u9b4f\\u5b88\\u7fa9'}, 'id': '605062899594609_605079589592940', 'like_count': 1, 'likes': {'data': [{...}], 'paging': {'cursors': {...}}}, 'message': u'\\u300c\\u5229\\u7528\\u5a92\\u9ad4\\u7684\\u5f71\\u97...\\uff01\\u80e1\\u8acb\\u6f54\\u8eab\\u81ea\\u611b\\uff5e'}, {'comment_count': 0, 'created_time': '2015-01-14T13:22:08+0000', 'from': {'id': '816839965031544', 'name': u'\\u7406\\u5f97\\u5b89'}, 'id': '605062899594609_605083096259256', 'like_count': 1, 'likes': {'data': [{...}], 'paging': {'cursors': {...}}}, 'message': u'\\u6bcf\\u500b\\u4eba\\u751f\\u898f\\u5316\\u4e0d\\u54...\\u807d\\u5c31\\u597d\\uff0c\\u4e0d\\u9808\\u5728\\u610f'}, {'comment_count': 0, 'created_time': '2015-01-15T07:57:11+0000', 'from': {'id': '10200512085362589', 'name': u'\\u694a\\u6dd1\\u60e0'}, 'id': '605062899594609_605312509569648', 'like_count': 1, 'likes': {'data': [{...}], 'paging': {'cursors': {...}}}, 'message': u'\\u611bmoney'}, {'comment_count': 0, 'created_time': '2015-01-14T12:32:48+0000', 'from': {'id': '1441030569520839', 'name': 'ChengYi Chen'}, 'id': '605062899594609_605071079593791', 'like_count': 0, 'message': u'\\u8001\\u80e1\\u4f60\\u61c9\\u8a72\\u53bb\\u9d3b\\u6d77\\u7576CEO'}, {'comment_count': 0, 'created_time': '2015-01-16T08:49:46+0000', 'from': {'id': '1031107916903220', 'name': 'Steve Shi'}, 'id': '605062899594609_605649542869278', 'like_count': 0, 'message': u'\\u65fa\\u65fa\\u611b\\u53f0\\u7063? \\u8ddf\\u99ac\\u82f1\\u4e5d\\u4e00\\u6a23\\u611b\\u55ce?'}], 'paging': {'cursors': {'after': 'MQ==', 'before': 'MTA='}}}, '641112856000411': {'data': [{'comment_count': 0, 'created_time': '2015-01-26T00:16:12+0000', 'from': {'id': '10152655154115843', 'name': 'Xavier Yu'}, 'id': '641112856000411_641307219314308', 'like_count': 1, 'likes': {'data': [{...}], 'paging': {'cursors': {...}}}, 'message': u'\\u99d5\\u99db\\u8aaa\\u6cd5\\u5927\\u9810\\u6e2c\\n\\u...\\u5e74\\u4ed4\\u9a0e\\u592a\\u5feb\\u5566\\uff01\\u300d'}, {'comment_count': 0, 'created_time': '2015-01-26T03:08:46+0000', 'from': {'id': '1173938855956405', 'name': u'\\u8521\\u83dc'}, 'id': '641112856000411_641353282643035', 'like_count': 1, 'likes': {'data': [{...}], 'paging': {'cursors': {...}}}, 'message': u'\\u53cd\\u6b63\\u4e4b\\u5f8c\\u51fa\\u4f86\\u9053\\u6b...\\u5c31\\u53c8\\u6e1b\\u8f15\\u5211\\u7f70\\u4e86\\uff5e'}, {'comment_count': 0, 'created_time': '2015-01-26T03:40:15+0000', 'from': {'id': '1543918112558449', 'name': 'Pin Chen'}, 'id': '641112856000411_641361332642230', 'like_count': 0, 'message': u'\\u9019\\u61c9\\u7b97\\u8b00\\u6bba\\uff0c\\u4f46\\u53...\\u5bb3\\u8005\\u90fd\\u6c92\\u4eba\\u6b0a\\u55ce\\uff01'}, {'comment_count': 2, 'comments': {'data': [{...}, {...}], 'paging': {'cursors': {...}}}, 'created_time': '2015-01-25T21:18:43+0000', 'from': {'id': '883711615025615', 'name': u'\\u51b0\\u5fc3'}, 'id': '641112856000411_641263822651981', 'like_count': 0, 'message': u'\\u8001\\u5e2b \\u8ddf \\u96fb\\u8996 \\u90fd\\u6709\\...u95b1 \\u9003\\u4ea1\\u4e4b\\u8def\\u7dda\\u6293\\u4eba'}, {'comment_count': 0, 'created_time': '2015-01-25T21:19:51+0000', 'from': {'id': '883711615025615', 'name': u'\\u51b0\\u5fc3'}, 'id': '641112856000411_641264142651949', 'like_count': 0, 'message': u'\\u5192\\u96aa\\u8ffd\\u8eca \\u767c\\u751f\\u5176\\u4...4e8b \\u4f46\\u9084\\u662f \\u5b89\\u5168\\u70ba\\u4e0a'}, {'comment_count': 1, 'comments': {'data': [{...}], 'paging': {'cursors': {...}}}, 'created_time': '2015-01-26T08:25:42+0000', 'from': {'id': '942961345716473', 'name': u'\\u5289\\u58eb\\u8377'}, 'id': '641112856000411_641426829302347', 'like_count': 0, 'message': u'\\u770b\\u5230\\u65b0\\u805e\\n\\u54e1\\u8b66\\u8aaa\\u...\\u7169\\u8070\\u660e\\u4e00\\u9ede\\u597d\\u55ce\\uff1f'}, {'comment_count': 0, 'created_time': '2015-01-26T00:55:27+0000', 'from': {'id': '1556505214628364', 'name': u'\\u5f35\\u667a\\u5091'}, 'id': '641112856000411_641318155979881', 'like_count': 0, 'message': u'\\u99ac\\u7684\\u6293\\u53bb\\u95dc\\u597d\\u4e86 \\u6...u505c \\u81ea\\u4ee5\\u70ba\\u6c92\\u6709\\u932f\\u5594'}, {'comment_count': 0, 'created_time': '2015-01-26T16:30:50+0000', 'from': {'id': '916312121722222', 'name': u'\\u4f5f\\u96c5\\u5be7'}, 'id': '641112856000411_641586472619716', 'like_count': 0, 'message': u'\\u55ef...\\u6309\\u7167\\uff33\\uff2f\\uff30\\u6d41\\...\\u4e8b\\u99d5\\u99db\\u5b8c\\u5168\\u7121\\u95dc\\u3002'}, {'comment_count': 0, 'created_time': '2015-01-26T01:22:13+0000', 'from': {'id': '1034499663233406', 'name': 'Ronnie Ho'}, 'id': '641112856000411_641327415978955', 'like_count': 0, 'message': u'\\u662f\\u53f0\\u7063\\u5927\\u9053\\u3002\\u3002\\u3002'}, {'comment_count': 1, 'comments': {'data': [{...}], 'paging': {'cursors': {...}}}, 'created_time': '2015-01-26T13:14:13+0000', 'from': {'id': '952271944791840', 'name': 'Hu Kai-jie'}, 'id': '641112856000411_641499739295056', 'like_count': 0, 'message': u'\\u7ffb\\u958b\\u9b54\\u6cd5\\u5361:\\u9053\\u6b49SOP...\\u6709\\u6094\\u610f\\u5f9e\\u8f15\\u91cf\\u5211\\u3002'}, {'comment_count': 0, 'created_time': '2015-01-26T11:58:15+0000', 'from': {'id': '972558892762570', 'name': u'\\u90ed\\u8ce2\\u5fb7'}, 'id': '641112856000411_641475705964126', 'like_count': 0, 'message': u'\\u53c8\\u662f\\u8087\\u4e8b\\u9003\\u9038\\uff0c\\u771f\\u8a72\\u5224\\u6b7b\\u5211'}, {'comment_count': 0, 'created_time': '2015-01-27T10:41:00+0000', 'from': {'id': '337105213149735', 'name': u'\\u5433\\u4e9e\\u7487'}, 'id': '641112856000411_641858149259215', 'like_count': 0, 'message': u'\\u9019\\u9ebc\\u591a\\u8087\\u4e8b\\u9003\\u9038\\u90...de\\u4f86 \\u9084\\u6709\\u4eba\\u6703\\u60f3\\u8dd1~-~'}, {'comment_count': 0, 'created_time': '2015-01-27T18:47:15+0000', 'from': {'id': '10205681715060126', 'name': 'Vanness Lai'}, 'id': '641112856000411_642008235910873', 'like_count': 0, 'message': u'\\u641e\\u4e0d\\u61c2\\u7559\\u8a00\\u8aaa\\u98a8\\u6d...u8005\\u53ca\\u5bb6\\u5c6c\\u7684\\u611f\\u53d7\\u554a?'}], 'paging': {'cursors': {'after': 'Mg==', 'before': 'MTQ='}}}, '649592448501770': {'data': [{'comment_count': 2, 'comments': {'data': [{...}, {...}], 'paging': {'cursors': {...}}}, 'created_time': '2015-01-26T08:50:14+0000', 'from': {'id': '893407674050205', 'name': u'\\u5289\\u66dc\\u744b'}, 'id': '649592448501770_649636138497401', 'like_count': 13, 'likes': {'data': [{...}, {...}, {...}, {...}, {...}, {...}, {...}, {...}, {...}, {...}, {...}, {...}, {...}], 'paging': {'cursors': {...}}}, 'message': u'\\u591a\\u5b78\\u5b78(\\u4fdd\\u52a0\\u5229\\u4e9e)\\u...\\u99d5\\u8087\\u4e8b\\u552f\\u4e00\\u6b7b\\u5211\\uff01'}, {'comment_count': 0, 'created_time': '2015-01-26T10:51:36+0000', 'from': {'id': '960228250668215', 'name': 'Wei DA Chen'}, 'id': '649592448501770_649669371827411', 'like_count': 10, 'likes': {'data': [{...}, {...}, {...}, {...}, {...}, {...}, {...}, {...}, {...}], 'paging': {'cursors': {...}}}, 'message': u'\\u771f\\u7684\\u8981\\u7d66\\u9019\\u4f4d\\u71b1\\u5f...u500b\\u8b9a,\\u611f\\u8b1d\\u9019\\u4f4d\\u9a0e\\u58eb'}, {'comment_count': 0, 'created_time': '2015-01-26T13:38:37+0000', 'from': {'id': '10203840820834004', 'name': u'\\u5442\\u82f1\\u541b'}, 'id': '649592448501770_649726018488413', 'like_count': 8, 'likes': {'data': [{...}, {...}, {...}, {...}, {...}, {...}, {...}, {...}], 'paging': {'cursors': {...}}}, 'message': u'\\u4ec0\\u9ebc\\u53eb\\u505a\\u6c92\\u770b\\u7d05\\u71...\\u773e\\uff0c\\u8eca\\u4e3b\\u592a\\u904e\\u4efd\\u4e86'}, {'comment_count': 7, 'comments': {'data': [{...}, {...}, {...}, {...}, {...}, {...}, {...}], 'paging': {'cursors': {...}}}, 'created_time': '2015-01-26T09:43:52+0000', 'from': {'id': '938861862793605', 'name': 'Jack Lee'}, 'id': '649592448501770_649652095162472', 'like_count': 3, 'likes': {'data': [{...}, {...}], 'paging': {'cursors': {...}}}, 'message': u'1.\\u53f0\\u4e2d\\u771f\\u7684\\u662f\\u4e00\\u500b\\u...u5f88\\u5feb\\u7684\\u628a\\u6c34\\u5674\\u5149\\u5149!'}, {'comment_count': 1, 'comments': {'data': [{...}], 'paging': {'cursors': {...}}}, 'created_time': '2015-01-26T08:26:59+0000', 'from': {'category': 'Non-profit organization', 'id': '102336709851647', 'name': u'TMRA \\u53f0\\u7063\\u6469\\u6258\\u8eca\\u53cb\\u5354\\u6703(Taiwan Motorcycle Riders Association)'}, 'id': '649592448501770_649626398498375', 'like_count': 1, 'likes': {'data': [{...}], 'paging': {'cursors': {...}}}, 'message': u'\\u54ac\\u75db\\u90e8\\uff1a\\u5341\\u6b21\\u8eca\\u79...0d\\u5b89\\u3011\\u6bcf\\u5e74\\u6b7b\\u4ea11189\\u4eba'}, {'comment_count': 0, 'created_time': '2015-01-26T15:20:40+0000', 'from': {'id': '992136430814759', 'name': 'Jason Chien'}, 'id': '649592448501770_649771155150566', 'like_count': 1, 'likes': {'data': [{...}], 'paging': {'cursors': {...}}}, 'message': u'\\u70ba\\u4f55\\u53f0\\u7063\\u4e0d\\u6562\\u9152\\u99...\\u624d\\u3127\\u76f4\\u7e31\\u5bb9\\u9152\\u99d5\\u72af'}, {'comment_count': 0, 'created_time': '2015-01-26T08:54:33+0000', 'from': {'id': '1100326553327222', 'name': 'Nini Chang'}, 'id': '649592448501770_649636805164001', 'like_count': 1, 'likes': {'data': [{...}], 'paging': {'cursors': {...}}}, 'message': u'\\u9304\\u5f71\\u7684\\u5f1f\\u5f1f\\u68d2\\u68d2'}, {'comment_count': 0, 'created_time': '2015-01-26T17:00:13+0000', 'from': {'id': '412383642258499', 'name': u'\\u5f35\\u4e16\\u660c'}, 'id': '649592448501770_649810761813272', 'like_count': 1, 'likes': {'data': [{...}], 'paging': {'cursors': {...}}}, 'message': u'\\u9a19\\u7b11 \\u9a19\\u4eba\\u6c92\\u559d\\u904e\\u9...\\u4e0d\\u5982\\u76f4\\u8aaa\\u8eca\\u5b50\\u66b4\\u885d'}, {'comment_count': 0, 'created_time': '2015-01-27T04:47:11+0000', 'from': {'id': '910055345681650', 'name': u'\\u5289\\u8ed2\\u84c1'}, 'id': '649592448501770_650069118454103', 'like_count': 1, 'likes': {'data': [{...}], 'paging': {'cursors': {...}}}, 'message': u'\\u8a87\\u5f35\\u7684\\u662f.....\\u4ed6\\u5011\\u572...\\u6c92\\u60f3\\u5230\\u9019\\u6a23\\u8a87\\u5f35\\u3002'}, {'comment_count': 0, 'created_time': '2015-01-27T03:08:46+0000', 'from': {'id': '849707835086311', 'name': 'Chen Vincent'}, 'id': '649592448501770_650041141790234', 'like_count': 1, 'likes': {'data': [{...}], 'paging': {'cursors': {...}}}, 'message': u'\\u6562\\u9152\\u99d5\\uff0c\\u81c9\\u5c31\\u4e0d\\u89...6065\\u7684\\u4eba\\u662f\\u4ec0\\u9ebc\\u6a23\\u5b50!!'}, {'comment_count': 0, 'created_time': '2015-01-26T14:19:03+0000', 'from': {'id': '776401405742979', 'name': u'\\u611b\\u81ea\\u5df1'}, 'id': '649592448501770_649742028486812', 'like_count': 0, 'message': u'\\u53f0\\u7063\\u5c31\\u662f\\u9152\\u99d5\\u5224\\u59...\\u5bb6\\u5ead\\u5bb6\\u7834\\u4eba\\u4ea1\\u55ce\\uff1f'}, {'comment_count': 1, 'comments': {'data': [{...}], 'paging': {'cursors': {...}}}, 'created_time': '2015-01-26T15:40:55+0000', 'from': {'id': '1584078041809340', 'name': 'Cat Cat'}, 'id': '649592448501770_649778371816511', 'like_count': 0, 'message': u'\\u6211\\u53ea\\u60f3\\u8aaa\\u3002\\u3002\\u9019\\u50...\\u6c99\\u4e0b\\u5404\\u9109\\u93ae\\u548c\\u4eba\\u6c11'}, {'comment_count': 0, 'created_time': '2015-01-26T10:51:47+0000', 'from': {'id': '955782401106386', 'name': u'\\u975b\\u7f44\\u5b87\\u6587'}, 'id': '649592448501770_649669435160738', 'like_count': 0, 'message': u'\\u9019\\u7a2e\\u4eba\\u6709\\u524d\\u79d1\\u53c8\\u71...\\u6cbb\\u7684\\u4e86\\u4ed6\\u5c31\\u662f\\u6b7b\\u5211'}, {'comment_count': 0, 'created_time': '2015-01-26T15:03:21+0000', 'from': {'id': '1560421480908935', 'name': u'\\u9673\\u9857\\u4e1e'}, 'id': '649592448501770_649764885151193', 'like_count': 0, 'message': u'\\u5e0c\\u671b\\u6cd5\\u5f8b\\u5236\\u88c1\\u5f88\\u67...\\u4ee5\\u6b7b\\u5211\\u4f86\\u704c\\u6ce8\\u65bc\\u4eba'}, {'comment_count': 0, 'created_time': '2015-01-26T15:51:18+0000', 'from': {'category': 'Just for fun', 'id': '1499162883704101', 'name': u'\\u6211\\u662f\\u6d32\\u7f8e\\u4eba\\uff01\\u6d88\\u6e...\\u65b0\\u7d71\\u4e00\\u6148\\u6fdf\\u96c6\\u5718\\uff01'}, 'id': '649592448501770_649781575149524', 'like_count': 0, 'message': u'\\u6b7b\\u5211\\u5566\\uff01\\n\\u800c\\u4e14\\u8981\\u...\\u9152\\u704c\\u5230\\u6b7b\\u4e4b\\u6b7b\\u5211\\uff01'}, {'comment_count': 0, 'created_time': '2015-01-26T15:16:23+0000', 'from': {'id': '917462434941959', 'name': u'\\u77f3\\u91d1\\u5f18'}, 'id': '649592448501770_649770008484014', 'like_count': 0, 'message': u'\\u770b\\u5230\\u4e00\\u5f35\\u80cc\\u5f71 \\u4e00\\u4...\\u8863\\u7684\\u4eba\\u5728\\u5e6b\\u5fd9\\u63a8\\u8eca'}, {'comment_count': 1, 'comments': {'data': [{...}], 'paging': {'cursors': {...}}}, 'created_time': '2015-01-26T20:11:16+0000', 'from': {'id': '898861330136110', 'name': 'Hung Chen Chang Chang'}, 'id': '649592448501770_649888641805484', 'like_count': 0, 'message': u'\\u53f0\\u7063\\u4ea4\\u901a\\u6700\\u5927\\u554f\\u98...\\u6b98\\u8d85\\u904e\\u4efb\\u4f55\\u707d\\u96e3\\uff01'}, {'comment_count': 0, 'created_time': '2015-01-26T13:50:49+0000', 'from': {'id': '1060957220587462', 'name': u'\\u4e1e\\u5049'}, 'id': '649592448501770_649732561821092', 'like_count': 0, 'message': u'\\u5c31\\u662f\\u9019\\u500b\\u5783\\u573e,\\u5abd\\u7684'}, {'comment_count': 0, 'created_time': '2015-01-26T15:14:33+0000', 'from': {'id': '872109256145422', 'name': u'\\u9673\\u8ca1\\u5bcc'}, 'id': '649592448501770_649769168484098', 'like_count': 0, 'message': u'\\u9019\\u7a2e\\u4eba\\u6709\\u9700\\u8981\\u5b89\\u5168\\u5e3d?'}, {'comment_count': 0, 'created_time': '2015-01-26T15:12:40+0000', 'from': {'id': '897258030296333', 'name': 'Smile Song'}, 'id': '649592448501770_649768478484167', 'like_count': 0, 'message': u'\\u4eba\\u6e23!'}], 'paging': {'cursors': {'after': 'NQ==', 'before': 'MjQ='}}}, '671450439649383': {'data': [{'comment_count': 0, 'created_time': '2015-02-02T09:27:37+0000', 'from': {'id': '1043190105696837', 'name': 'Conan Yang'}, 'id': '671450439649383_671457196315374', 'like_count': 3, 'likes': {'data': [{...}, {...}, {...}], 'paging': {'cursors': {...}}}, 'message': u'\\u674e\\u8277\\u79cb\\u662f\\u5fcc\\u5992\\u9084\\u66...\\u79cb\\u662f\\u5fcc\\u5992\\u9084\\u662f\\u7fa8\\u6155'}, {'comment_count': 0, 'created_time': '2015-02-02T12:35:07+0000', 'from': {'id': '1552465038364899', 'name': u'\\u6797\\u9038\\u6b23'}, 'id': '671450439649383_671621099632317', 'like_count': 3, 'likes': {'data': [{...}, {...}, {...}], 'paging': {'cursors': {...}}}, 'message': u'\\u6700\\u8a0e\\u53ad\\u660e\\u660e\\u4e0d\\u6703\\u8b...d7\\u5b98......\\u5343 \\u842c \\u4e0d \\u8981 \\u807d'}, {'comment_count': 2, 'comments': {'data': [{...}, {...}], 'paging': {'cursors': {...}}}, 'created_time': '2015-02-02T09:32:12+0000', 'from': {'id': '778963008854232', 'name': u'\\u6797\\u6e05\\u6587'}, 'id': '671450439649383_671458069648620', 'like_count': 1, 'likes': {'data': [{...}], 'paging': {'cursors': {...}}}, 'message': u'\\u6211\\u4e5f\\u662f\\u7b49\\u8457\\u770b\\u67ef\\u5e...84\\u7334\\u6232..........\\u53f0\\u5317\\u5287\\u5834'}, {'comment_count': 0, 'created_time': '2015-02-02T09:11:22+0000', 'from': {'id': '1551923215090742', 'name': 'Farmer Chang'}, 'id': '671450439649383_671453166315777', 'like_count': 0, 'message': u'\\u5176\\u5be6\\u822a\\u7a7a\\u57ce\\u624d\\u662f\\u6b...u67efP\\uff0c\\u4e00\\u9ede\\u90fd\\u4e0d\\u7cbe\\u5f69'}], 'paging': {'cursors': {'after': 'Mg==', 'before': 'NQ=='}}}, '680501485380396': {'data': [{'comment_count': 0, 'created_time': '2015-01-11T09:34:35+0000', 'from': {'id': '801028556633537', 'name': u'\\u8cf4\\u6631\\u83d8'}, 'id': '680501485380396_680519145378630', 'like_count': 2, 'likes': {'data': [{...}, {...}], 'paging': {'cursors': {...}}}, 'message': u'\\u5e79!\\u4e00\\u500b\\u5047BRT.\\u6b4c\\u5287\\u966...4e0d\\u8dd1\\u8def,\\u9084\\u51fa\\u4f86\\u884c\\u9a19?'}, {'comment_count': 0, 'created_time': '2015-01-11T12:19:00+0000', 'from': {'id': '921652304519927', 'name': 'Chen AmigoSir'}, 'id': '680501485380396_680567158707162', 'like_count': 1, 'likes': {'data': [{...}], 'paging': {'cursors': {...}}}, 'message': u'\\u8001\\u72d0\\u9084\\u771f\\u662f\\u80fd\\u5c48\\u80...8001\\u6bdb\\u5e79\\u6599,\\u8b93\\u4f60\\u7d44\\u95a3!'}, {'comment_count': 0, 'created_time': '2015-01-11T08:57:46+0000', 'from': {'id': '558965590907544', 'name': u'\\u5f35\\u7c21\\u714c'}, 'id': '680501485380396_680511982046013', 'like_count': 1, 'likes': {'data': [{...}], 'paging': {'cursors': {...}}}, 'message': u'\\u80e1\\u5047\\u52a9\\u7406\\u5be6\\u7de8\\u5c0e,\\u856d\\u5047\\u7acb\\u59d4\\u5be6\\u5080\\u5121'}, {'comment_count': 0, 'created_time': '2015-01-11T14:56:13+0000', 'from': {'id': '1486098674948361', 'name': 'Josie Chang'}, 'id': '680501485380396_680622448701633', 'like_count': 1, 'likes': {'data': [{...}], 'paging': {'cursors': {...}}}, 'message': u'\\u6703\\u4e0d\\u6703\\u56e0\\u70ba\\u4e2d\\u98a8\\u80...\\u5920\\u5dee\\u7684\\u7968\\u6703\\u66f4\\u6158\\uff1f'}, {'comment_count': 0, 'created_time': '2015-01-11T12:56:11+0000', 'from': {'id': '1603329683231147', 'name': 'Jim  Su'}, 'id': '680501485380396_680580625372482', 'like_count': 0, 'message': u'The Stupid and Shameless Ma, Ying-Joeu (Mr. Ho...n--- Jim Su, NE1976B, NE1980G, PhD in ECE, CISSP'}, {'comment_count': 0, 'created_time': '2015-01-16T02:43:44+0000', 'from': {'id': '837474582978268', 'name': u'\\u90b1\\u745e\\u798e'}, 'id': '680501485380396_682510568512821', 'like_count': 0, 'message': u'\\u4e5d\\u5408\\u4e00\\u539f\\u672c\\u5e0c\\u671b\\u7d...\\u7e7c\\u7e8c\\u6559\\u8a13\\u4e0b\\u53bb\\u3002\\u3002'}], 'paging': {'cursors': {'after': 'Mw==', 'before': 'OA=='}}}, '685793571533240': {'data': [{'comment_count': 0, 'created_time': '2015-02-07T11:10:28+0000', 'from': {'id': '817137325024405', 'name': u'\\u8a79\\u98c4'}, 'id': '685793571533240_686300571482540', 'like_count': 0, 'message': u'\\u80d6\\u4e01~~\\u4f60\\u4e0a\\u65b0\\u805e\\u4e86\\u8036~~'}], 'paging': {'cursors': {'after': 'MQ==', 'before': 'MQ=='}}}, ...}"
p197
sS'like_count'
p198
S'5'
sS'news_fid'
p199
S"'888863661153948'"
p200
sS'created_time'
p201
S'datetime.datetime(2015, 1, 19, 8, 41, 16)'
p202
sS'message'
p203
S"u'\\u8001\\u80e1\\u597d\\u5927\\u559c\\u529f\\uff0c\\u4e...\\u60e1\\u696d\\u5bb3\\u53f0\\u7063\\u4e86\\u5427\\uff01'"
p204
sS'row'
p205
S"<Row {'b_like_count': None, 'age_range': None, '...one, 'g_like_count': None, 'b_wordclouds': None}>"
p206
sS'news_href'
p207
S"'http://www.appledaily.com.tw/realtimenews/article/new/20150119/544583/'"
p208
sS'fids'
p209
S"'1016340705062516,600808040019726,920301688010698...4,724865657627709,680501485380396,776344072449017'"
p210
sS'graph'
p211
S'<facebook.GraphAPI object>'
p212
sS'next_p'
p213
S"'NzE%3D'"
p214
sS'comments'
p215
S'None'
p216
sS'comment_count'
p217
S'0'
sS'from_team'
p218
S"'BRT'"
p219
sS'fid'
p220
S"'888863661153948'"
p221
sS'from_name'
p222
S"u'\\u9ec3\\u6587\\u6c82'"
p223
sS'news_source'
p224
S"'\\xe8\\x98\\x8b\\xe6\\x9e\\x9c\\xe6\\x97\\xa5\\xe5\\xa0\\xb1'"
p225
sS'parent'
p226
S'None'
p227
sS'post'
p228
S"{'comment_count': 0, 'created_time': '2015-01-19T08:41:16+0000', 'from': {'id': '1573938736197175', 'name': u'\\u9ec3\\u6587\\u6c82'}, 'id': '888863661153948_888931634480484', 'like_count': 5, 'likes': {'data': [{'id': '1573938736197175', 'name': u'\\u9ec3\\u6587\\u6c82'}, {'id': '973066252718619', 'name': u'\\u9673\\u6625\\u7f8e'}, {'id': '1543400269275087', 'name': u'\\u6d2a\\u65ed\\u797a'}, {'id': '922680474430890', 'name': 'Sue Ho'}, {'id': '451185718364834', 'name': u'\\u5f35\\u7389\\u7434'}], 'paging': {'cursors': {'after': 'NDUxMTg1NzE4MzY0ODM0', 'before': 'MTU3MzkzODczNjE5NzE3NQ=='}}}, 'message': u'\\u8001\\u80e1\\u597d\\u5927\\u559c\\u529f\\uff0c\\u4e...\\u60e1\\u696d\\u5bb3\\u53f0\\u7063\\u4e86\\u5427\\uff01'}"
p229
sS'segment'
p230
S"[u'\\u8001\\u80e1', u'\\u597d\\u5927\\u559c\\u529f', u'\\uff0c', u'\\u4e0d\\u77e5', u'\\u6c11\\u9593', u'\\u75be\\u82e6', u'\\uff0c', u'\\u96e3\\u602a', u'\\u8af8\\u4e8b', u'\\u4e0d\\u9806', u'\\uff0c', u'\\u983b\\u906d', u'\\u5384\\u904b', u'\\uff0c', u'\\u8acb\\u5225', u'\\u5230', u'\\u90a3\\u5bb6', u'\\u4f01\\u696d', u'\\u518d\\u9020', u'\\u60e1\\u696d', ...]"
p231
sS'from_id'
p232
S"'1573938736197175'"
p233
sS'cid'
p234
S"'888863661153948_888931634480484'"
p235
sS'posts'
p236
S"{'data': [{'comment_count': 13, 'comments': {'data': [{'can_remove': False, 'created_time': '2015-01-19T05:19:18+0000', 'from': {...}, 'id': '888863661153948_888874347819546', 'like_count': 58, 'message': u'\\u5e6b\\u6797\\u4f73\\u9f8d\\u88dc\\u5145\\u8aaa\\u66...\\u5be7\\u9858\\u8ce0\\u6b3e\\u4e5f\\u4e0d\\u5272\\u5730', 'user_likes': False}, {'can_remove': False, 'created_time': '2015-01-19T05:24:37+0000', 'from': {...}, 'id': '888863661153948_888875971152717', 'like_count': 47, 'message': u'\\u6709\\u554a\\uff0c\\u7092\\u623f\\u7684\\u529f\\u80fd\\u6027\\u61c9\\u8a72\\u4e0d\\u932f\\uff01', 'user_likes': False}, {'can_remove': False, 'created_time': '2015-01-19T05:25:52+0000', 'from': {...}, 'id': '888863661153948_888876217819359', 'like_count': 127, 'message': u'\\u8981\\u7576KMT\\u9ad8\\u5b98\\u7684\\u5854\\u4f4d\\u7528\\u7684', 'user_likes': False}, {'can_remove': False, 'created_time': '2015-01-19T05:34:54+0000', 'from': {...}, 'id': '888863661153948_888878517819129', 'like_count': 8, 'message': u'\\u99ac\\u6c40 \\u5999\\u7b54^^', 'user_likes': False}, {'can_remove': False, 'created_time': '2015-01-19T05:37:41+0000', 'from': {...}, 'id': '888863661153948_888879104485737', 'like_count': 3, 'message': u'\\u7121\\u804a\\u53ef\\u4ee5\\u53bb\\u722c\\u7df4\\u8eab\\u9ad4\\u3002', 'user_likes': False}, {'can_remove': False, 'created_time': '2015-01-19T06:00:50+0000', 'from': {...}, 'id': '888863661153948_888884877818493', 'like_count': 43, 'message': u'\\u6211\\u4e0d\\u662f9.2\\uff0c\\u4e0d\\u904e\\u6211\\...\\u706b\\u5834\\u5730\\u7684\\u7d55\\u4f73\\u9078\\u64c7', 'user_likes': False}, {'can_remove': False, 'created_time': '2015-01-19T06:01:04+0000', 'from': {...}, 'id': '888863661153948_888884974485150', 'like_count': 5, 'message': u'\\u589e\\u52a0\\u9ee8\\u7522', 'user_likes': False}, {'can_remove': False, 'created_time': '2015-01-19T06:34:34+0000', 'from': {...}, 'id': '888863661153948_888892731151041', 'like_count': 28, 'message': u'\\u88e1\\u9762\\u6703\\u6709\\u8aaa\\u66f8\\u4eba\\uff...621099\\u56de\\uff0c\\u6bcf\\u5929\\u4e00\\u76f4\\u8aaa', 'user_likes': False}, {'can_remove': False, 'created_time': '2015-01-19T06:52:51+0000', 'from': {...}, 'id': '888863661153948_888897021150612', 'like_count': 7, 'message': u'\\u771f\\u7684\\u89ba\\u5f97\\u6703\\u6210\\u70ba\\u81ea\\u6bba\\u8056\\u5730\\u22ef', 'user_likes': False}, {'can_remove': False, 'created_time': '2015-01-19T07:19:54+0000', 'from': {...}, 'id': '888863661153948_888904547816526', 'like_count': 2, 'message': u'0+LN\\u6b64\\u8a71\\u4e00\\u51fa\\u5468\\u908a\\u623f\\u50f9 \\u77ac\\u9593-10%', 'user_likes': False}, {'can_remove': False, 'created_time': '2015-01-19T08:09:59+0000', 'from': {...}, 'id': '888863661153948_888925097814471', 'like_count': 17, 'message': u'150\\u5104\\u90fd\\u53ef\\u4ee5\\u84cb\\u4e00\\u689dL...u4eba \\u771f\\u7684\\u662f\\u798d\\u60a3\\u7121\\u7aae', 'user_likes': False}, {'can_remove': False, 'created_time': '2015-01-19T16:08:46+0000', 'from': {...}, 'id': '888863661153948_889103247796656', 'like_count': 2, 'message': u'\\u9673\\u79c0\\u6797 \\u4f60\\u5be6\\u5728\\u592a\\u5...u63a5 \\u807d\\u773e\\u61c9\\u8a72\\u4e0d\\u6703\\u5c11', 'user_likes': False}, {'can_remove': False, 'created_time': '2015-01-20T15:47:40+0000', 'from': {...}, 'id': '888863661153948_889647654408882', 'like_count': 0, 'message': u'\\u5c31\\u662f\\u8981\\u4f86\\u7092\\u5730\\u76ae\\u963f\\uff01', 'user_likes': False}], 'paging': {'cursors': {'after': 'WTI5dGJXVnVkRjlqZFhKemIzSTZPRGc1TmpRM05qVTBOREE0T0RneU9qRTBNakUzTmpnNE5qQT0=', 'before': 'WTI5dGJXVnVkRjlqZFhKemIzSTZPRGc0T0RjME16UTNPREU1TlRRMk9qRTBNakUyTkRRM05UZz0='}}}, 'created_time': '2015-01-19T04:42:54+0000', 'from': {'id': '405526576281112', 'name': 'Zhong-xian Ke'}, 'id': '888863661153948_888865144487133', 'like_count': 147, 'likes': {'data': [{'id': '1602922983270539', 'name': u'\\u674e\\u9708\\u7dba'}, {'id': '973066252718619', 'name': u'\\u9673\\u6625\\u7f8e'}, {'id': '10206039332726049', 'name': 'Jui Chu Chang'}, {'id': '10205379696724291', 'name': 'Amy H. T. Lin'}, {'id': '883401508348475', 'name': u'\\u632f\\u8c6a'}, {'id': '10202816633091887', 'name': u'\\u9673\\u51a0\\u7db8'}, {'id': '953022934709978', 'name': u'Iain \\u67f3\\u6fa4'}, {'id': '10203851031019050', 'name': 'Bulu Chang'}, {'id': '10206461216998692', 'name': 'Laura Nishikido Ryo Chen'}, {'id': '10203413556372570', 'name': 'Kuowei Hsiao'}, {'id': '10153178087999312', 'name': 'Hsin-Chieh Derrick Lin'}, {'id': '828648933862798', 'name': 'Eagie Hades'}, {'id': '939784899365766', 'name': u'\\u76e7\\u6641\\u6bc5'}, {'id': '910139379020299', 'name': 'JianJyun Liao'}, {'id': '779912228753732', 'name': u'\\u65bd\\u9298\\u6e05'}, {'id': '945065908846725', 'name': u'\\u90b1\\u5a01\\u9054'}, {'id': '896144910447544', 'name': 'Masato Nakamura'}, {'id': '1558946364385531', 'name': 'Fuji Hoopee'}, {'id': '874899869238225', 'name': u'\\u9ec3\\u827e\\u746a'}, {'id': '824735680934561', 'name': 'Emily Kuo'}, ...], 'paging': {'cursors': {'after': 'MTU0MzQwMDI2OTI3NTA4Nw==', 'before': 'MTYwMjkyMjk4MzI3MDUzOQ=='}}}, 'message': u'\\u8a71\\u8aaa\\uff11\\uff15\\uff10\\uff25\\u7684\\u53...\\u5f88\\u611f\\u8b1d\\u4f60\\uff0c\\u771f\\u7684\\u3002'}, {'comment_count': 8, 'comments': {'data': [{'can_remove': False, 'created_time': '2015-01-19T04:53:15+0000', 'from': {...}, 'id': '888863661153948_888867817820199', 'like_count': 15, 'message': u'\\u6700\\u4e2d\\u80af\\u3002', 'user_likes': False}, {'can_remove': False, 'created_time': '2015-01-19T06:35:25+0000', 'from': {...}, 'id': '888863661153948_888892921151022', 'like_count': 64, 'message': u'\\u84cb\\u500b\\u80e1\\u5fd7\\u5f37\\u5de8\\u50cf\\u59...\\u9806\\u4fbf\\u6539\\u540d\\u80e1\\u5fd7\\u5f37\\u5e02', 'user_likes': False}, {'can_remove': False, 'created_time': '2015-01-19T07:01:10+0000', 'from': {...}, 'id': '888863661153948_888899071150407', 'like_count': 29, 'message': u'\\u9673\\u79c0\\u6797 \\u5c0d\\u54c4 \\u9084\\u53ef\\u...8d8a \\u5357 \\u80e1\\u5fd7\\u660e\\u5e02\\u7d50\\u62dc', 'user_likes': False}, {'can_remove': False, 'created_time': '2015-01-19T07:51:16+0000', 'from': {...}, 'id': '888863661153948_888921054481542', 'like_count': 5, 'message': u'Pro Chang \\u9019\\u6a23\\u771f\\u7684\\u662f\\u56b4\\u91cd\\u6c59\\u8fb1\\u80e1\\u5fd7\\u660e\\u4e86', 'user_likes': False}, {'can_remove': False, 'created_time': '2015-01-19T09:15:42+0000', 'from': {...}, 'id': '888863661153948_888941214479526', 'like_count': 0, 'message': u'\\u9673\\u79c0\\u6797 \\u6211\\u4e0d\\u5141\\u8a31\\u4f60\\u6c59\\u8fb1\\u9ed1\\u8c6c\\u5f37', 'user_likes': False}, {'can_remove': False, 'created_time': '2015-01-19T10:30:08+0000', 'from': {...}, 'id': '888863661153948_888958624477785', 'like_count': 1, 'message': u'\\u8ddf\\u4ffa\\u6709\\u540c\\u611f...........', 'user_likes': False}, {'can_remove': False, 'created_time': '2015-01-19T13:15:33+0000', 'from': {...}, 'id': '888863661153948_889013817805599', 'like_count': 1, 'message': u'\\u795e\\u56de~', 'user_likes': False}, {'can_remove': False, 'created_time': '2015-01-20T00:18:18+0000', 'from': {...}, 'id': '888863661153948_889304464443201', 'like_count': 0, 'message': u'\\u59d0\\u59b9\\u5e02', 'user_likes': False}], 'paging': {'cursors': {'after': 'WTI5dGJXVnVkRjlqZFhKemIzSTZPRGc1TXpBME5EWTBORFF6TWpBeE9qRTBNakUzTVRNd09UZz0=', 'before': 'WTI5dGJXVnVkRjlqZFhKemIzSTZPRGc0T0RZM09ERTNPREl3TVRrNU9qRTBNakUyTkRNeE9UVT0='}}}, 'created_time': '2015-01-19T04:49:29+0000', 'from': {'id': '10202970474536483', 'name': 'Ed Ji'}, 'id': '888863661153948_888866804486967', 'like_count': 108, 'likes': {'data': [{'id': '800999639969762', 'name': 'Ting Young'}, {'id': '910139379020299', 'name': 'JianJyun Liao'}, {'id': '328956060637145', 'name': u'\\u7d00\\u5b97\\u5cb3'}, {'id': '10204013630962082', 'name': 'Peichi Ho'}, {'id': '533385453469662', 'name': u'\\u5f35\\u6dd1\\u6167'}, {'id': '1019716061376727', 'name': u'\\u9ec3\\u9a30\\u9707'}, {'id': '948392328512452', 'name': 'Chanel Tseng'}, {'id': '883401508348475', 'name': u'\\u632f\\u8c6a'}, {'id': '10202816633091887', 'name': u'\\u9673\\u51a0\\u7db8'}, {'id': '888700297849276', 'name': 'Xin Yi Shen'}, {'id': '10206461216998692', 'name': 'Laura Nishikido Ryo Chen'}, {'id': '10205718948070651', 'name': 'Hou-Yi Chang'}, {'id': '1045655922114933', 'name': u'\\u8449\\u6631\\u91cc'}, {'id': '851402541586575', 'name': 'Yuusui Chan'}, {'id': '945065908846725', 'name': u'\\u90b1\\u5a01\\u9054'}, {'id': '938184356216100', 'name': 'Jason Lin'}, {'id': '1558946364385531', 'name': 'Fuji Hoopee'}, {'id': '874899869238225', 'name': u'\\u9ec3\\u827e\\u746a'}, {'id': '1062005367148836', 'name': u'\\u5b6b\\u65b0\\u7fd4'}, {'id': '285024584955249', 'name': 'Grace  Yang'}, ...], 'paging': {'cursors': {'after': 'MTEwMTIzMTkyOTkwMzExNg==', 'before': 'ODAwOTk5NjM5OTY5NzYy'}}}, 'message': u'\\u9084\\u4e0d\\u5982\\u84cb\\u500b\\u9748\\u9aa8\\u5854\\u6bd4\\u8f03\\u5be6\\u7528'}, {'comment_count': 3, 'comments': {'data': [{'can_remove': False, 'created_time': '2015-01-19T06:35:53+0000', 'from': {...}, 'id': '888863661153948_888893034484344', 'like_count': 2, 'message': u'\\u771f\\u7684', 'user_likes': False}, {'can_remove': False, 'created_time': '2015-01-20T07:28:32+0000', 'from': {...}, 'id': '888863661153948_889420887764892', 'like_count': 2, 'message': u'\\u4e4b\\u524d\\u6709\\u770b\\u904e\\u65b0\\u805e\\u58...u5230\\u7684\\u90a3\\u7a2e\\u73bb\\u7483\\u5427....!!!', 'user_likes': False}, {'can_remove': False, 'created_time': '2015-01-21T01:43:29+0000', 'from': {...}, 'id': '888863661153948_889879864385661', 'like_count': 0, 'message': u'\\u6de1\\u5b9a \\u4f60\\u61c2\\u4f60\\u5c31\\u662f\\u5927\\u5e2b\\u4e86', 'user_likes': False}], 'paging': {'cursors': {'after': 'WTI5dGJXVnVkRjlqZFhKemIzSTZPRGc1T0RjNU9EWTBNemcxTmpZeE9qRTBNakU0TURRMk1UQT0=', 'before': 'WTI5dGJXVnVkRjlqZFhKemIzSTZPRGc0T0Rrek1ETTBORGcwTXpRME9qRTBNakUyTkRrek5UTT0='}}}, 'created_time': '2015-01-19T04:43:26+0000', 'from': {'id': '785363684873429', 'name': 'Jun De'}, 'id': '888863661153948_888865254487122', 'like_count': 79, 'likes': {'data': [{'id': '863834067007539', 'name': u'\\u8a79\\u76ca\\u82ac'}, {'id': '910139379020299', 'name': 'JianJyun Liao'}, {'id': '993835823979199', 'name': u'\\u5f35\\u8a60\\u7fd4'}, {'id': '778459162235625', 'name': 'Tin Chen'}, {'id': '844584282280437', 'name': 'Fish Tsai'}, {'id': '852238958155132', 'name': 'Chang-Jiun Terrence Wu'}, {'id': '866611980068181', 'name': u'\\u838a\\u500d\\u627f'}, {'id': '10152753058631242', 'name': 'Shun-Ping Huang'}, {'id': '10205379696724291', 'name': 'Amy H. T. Lin'}, {'id': '10202816633091887', 'name': u'\\u9673\\u51a0\\u7db8'}, {'id': '1041856415829186', 'name': 'Novia Chen'}, {'id': '10205718948070651', 'name': 'Hou-Yi Chang'}, {'id': '10205806361179699', 'name': 'Jude Huang'}, {'id': '1067860483227769', 'name': 'Yu-wen Chen'}, {'id': '10203809894340218', 'name': 'YuanJiun Tuan'}, {'id': '10205147607044196', 'name': 'Bianca Kuo'}, {'id': '1558946364385531', 'name': 'Fuji Hoopee'}, {'id': '934495629907836', 'name': u'\\u9ec3\\u93f5\\u53f3'}, {'id': '285024584955249', 'name': 'Grace  Yang'}, {'id': '923005187718115', 'name': u'\\u97d3\\u96f2'}, ...], 'paging': {'cursors': {'after': 'MTU0MzQwMDI2OTI3NTA4Nw==', 'before': 'ODYzODM0MDY3MDA3NTM5'}}}, 'message': u'\\u5716\\u770b\\u8d77\\u4f86\\u5c31\\u50cf\\u7528\\u9d...\\u76ae\\u6a39\\u6728\\u6490\\u5230\\u534a\\u7a7a\\u4e2d'}, {'comment_count': 0, 'created_time': '2015-01-19T05:12:57+0000', 'from': {'id': '1058815667467938', 'name': 'Cefars Chen'}, 'id': '888863661153948_888872821153032', 'like_count': 9, 'likes': {'data': [{'id': '10205379696724291', 'name': 'Amy H. T. Lin'}, {'id': '451304701688924', 'name': 'Jeff  Lim'}, {'id': '1060063587341867', 'name': 'Kuo Chen'}, {'id': '10206213685612090', 'name': 'Julius Lim'}, {'id': '905080252859120', 'name': 'Yvonne Chen'}, {'id': '744796525618050', 'name': 'Su Xiao Yu'}, {'id': '943948125623447', 'name': u'\\u9ea5\\u82d7\\u79c0'}, {'id': '1543400269275087', 'name': u'\\u6d2a\\u65ed\\u797a'}, {'id': '451185718364834', 'name': u'\\u5f35\\u7389\\u7434'}], 'paging': {'cursors': {'after': 'NDUxMTg1NzE4MzY0ODM0', 'before': 'MTAyMDUzNzk2OTY3MjQyOTE='}}}, 'message': u'80\\u5104\\u62ff\\u4f86\\u62c6BRT+\\u84cb\\u5730\\u9435, \\u61c9\\u8a72\\u6703\\u6bd4\\u8f03\\u597d!'}, {'comment_count': 0, 'created_time': '2015-01-19T05:25:57+0000', 'from': {'id': '10153610440215410', 'name': 'Leon Chen'}, 'id': '888863661153948_888876234486024', 'like_count': 6, 'likes': {'data': [{'id': '10205379696724291', 'name': 'Amy H. T. Lin'}, {'id': '451304701688924', 'name': 'Jeff  Lim'}, {'id': '1034201149942181', 'name': u'\\u9673\\u82af'}, {'id': '1060063587341867', 'name': 'Kuo Chen'}, {'id': '905080252859120', 'name': 'Yvonne Chen'}, {'id': '943948125623447', 'name': u'\\u9ea5\\u82d7\\u79c0'}], 'paging': {'cursors': {'after': 'OTQzOTQ4MTI1NjIzNDQ3', 'before': 'MTAyMDUzNzk2OTY3MjQyOTE='}}}, 'message': u'\\u53f0\\u4e2d\\u5e02\\u9700\\u8981\\u6210\\u7acb\\u5e...\\uff01\\u5927\\u5bb6\\u7b49\\u8457\\u770b\\u5427\\uff01'}, {'comment_count': 0, 'created_time': '2015-01-19T06:05:35+0000', 'from': {'id': '1738418129717780', 'name': 'Emptiness Infinity'}, 'id': '888863661153948_888886021151712', 'like_count': 1, 'likes': {'data': [{'id': '451304701688924', 'name': 'Jeff  Lim'}], 'paging': {'cursors': {'after': 'NDUxMzA0NzAxNjg4OTI0', 'before': 'NDUxMzA0NzAxNjg4OTI0'}}}, 'message': u'\\u84cb\\u5566\\uff01\\u84cb\\u5566\\uff01\\u9802\\u59...\\u5f8c\\u4eba\\u300c\\u8ffd\\u601d\\u6191\\u5f14\\u300d'}, {'comment_count': 0, 'created_time': '2015-01-20T05:53:02+0000', 'from': {'id': '10205143900369400', 'name': 'Carolyn Hsu'}, 'id': '888863661153948_889398461100468', 'like_count': 1, 'likes': {'data': [{'id': '844584282280437', 'name': 'Fish Tsai'}], 'paging': {'cursors': {'after': 'ODQ0NTg0MjgyMjgwNDM3', 'before': 'ODQ0NTg0MjgyMjgwNDM3'}}}, 'message': u'\\u932f\\u8aa4\\u6c7a\\u7b56\\u6bd4\\u8caa\\u6c61\\u66...u6211\\u5b8c\\u5168\\u8a8d\\u540c\\u9019\\u53e5\\u8a71~'}, {'comment_count': 0, 'created_time': '2015-01-19T05:16:02+0000', 'from': {'id': '1047985701883728', 'name': 'John Chang'}, 'id': '888863661153948_888873561152958', 'like_count': 43, 'likes': {'data': [{'id': '973066252718619', 'name': u'\\u9673\\u6625\\u7f8e'}, {'id': '10205379696724291', 'name': 'Amy H. T. Lin'}, {'id': '1030276053653450', 'name': u'\\u795d\\u9298\\u4f51'}, {'id': '10202816633091887', 'name': u'\\u9673\\u51a0\\u7db8'}, {'id': '10153098485522726', 'name': u'\\u5433\\u5072\\u745c'}, {'id': '10203851031019050', 'name': 'Bulu Chang'}, {'id': '958423244168756', 'name': u'\\u856d\\u6dd1\\u82b3'}, {'id': '1020832994611472', 'name': 'Shingstar Tsai'}, {'id': '1045655922114933', 'name': u'\\u8449\\u6631\\u91cc'}, {'id': '902534393143477', 'name': u'\\u5f6d\\u79cb\\u4f86'}, {'id': '1031054546909242', 'name': u'\\u9673\\u827e\\u744b'}, {'id': '10153111503708599', 'name': 'Warren Lin'}, {'id': '755806871154819', 'name': u'\\u9ad8\\u7802\\u767e\\u5408'}, {'id': '934495629907836', 'name': u'\\u9ec3\\u93f5\\u53f3'}, {'id': '10202433576359036', 'name': 'Kai-yun Chang'}, {'id': '285024584955249', 'name': 'Grace  Yang'}, {'id': '923005187718115', 'name': u'\\u97d3\\u96f2'}, {'id': '798267536921379', 'name': 'David Wang'}, {'id': '941477975864935', 'name': 'Cheng Lee'}, {'id': '894138543959086', 'name': u'\\u9673\\u5955\\u9716'}, ...], 'paging': {'cursors': {'after': 'OTQzOTQ4MTI1NjIzNDQ3', 'before': 'OTczMDY2MjUyNzE4NjE5'}}}, 'message': u'\\u5176\\u5be6\\u2026\\u53f0\\u7063\\u76ee\\u524d\\u76...\\u53bb\\u904e\\u7684\\u90fd\\u6703\\u77e5\\u9053\\u2026'}, {'comment_count': 0, 'created_time': '2015-01-19T04:46:25+0000', 'from': {'id': '877973675578686', 'name': u'\\u90b1\\u5fd7\\u958e'}, 'id': '888863661153948_888866051153709', 'like_count': 43, 'likes': {'data': [{'id': '1602922983270539', 'name': u'\\u674e\\u9708\\u7dba'}, {'id': '844584282280437', 'name': 'Fish Tsai'}, {'id': '973066252718619', 'name': u'\\u9673\\u6625\\u7f8e'}, {'id': '797858740293222', 'name': u'\\u90ed\\u5927\\u7dad'}, {'id': '10205960451401316', 'name': 'Josephine Cheng'}, {'id': '10203851031019050', 'name': 'Bulu Chang'}, {'id': '958423244168756', 'name': u'\\u856d\\u6dd1\\u82b3'}, {'id': '1045655922114933', 'name': u'\\u8449\\u6631\\u91cc'}, {'id': '1081072341918239', 'name': u'\\u96f7\\u6d77\\u9752'}, {'id': '907749575911980', 'name': 'Look Yu'}, {'id': '10205147607044196', 'name': 'Bianca Kuo'}, {'id': '1031054546909242', 'name': u'\\u9673\\u827e\\u744b'}, {'id': '934495629907836', 'name': u'\\u9ec3\\u93f5\\u53f3'}, {'id': '285024584955249', 'name': 'Grace  Yang'}, {'id': '799713940096682', 'name': u'\\u9673\\u67cf\\u7db8'}, {'id': '894138543959086', 'name': u'\\u9673\\u5955\\u9716'}, {'id': '1024453597568995', 'name': 'Anna Wang'}, {'id': '10202514953274101', 'name': 'Steven Wu'}, {'id': '778598795551524', 'name': u'\\u838a\\u66dc\\u83ef'}, {'id': '10202374390401319', 'name': u'\\u9673\\u67cf\\u52f3'}, ...], 'paging': {'cursors': {'after': 'MTU0MzQwMDI2OTI3NTA4Nw==', 'before': 'MTYwMjkyMjk4MzI3MDUzOQ=='}}}, 'message': u'\\u53c8\\u662f\\u4e00\\u4ef6KMT\\u653f\\u5ba2\\u597d\\...7a0b,\\u9084\\u597d\\u6709\\u653f\\u9ee8\\u8f2a\\u66ff~'}, {'comment_count': 4, 'comments': {'data': [{'can_remove': False, 'created_time': '2015-01-19T05:45:00+0000', 'from': {...}, 'id': '888863661153948_888881137818867', 'like_count': 23, 'message': u'\\u56e0\\u70ba\\u7b2c\\u4e00\\u6b21\\u7684\\u9810\\u7b...u72d7\\u5b98\\u8981\\u62ff\\u7684 \\u7b97\\u9032\\u53bb', 'user_likes': False}, {'can_remove': False, 'created_time': '2015-01-19T13:16:03+0000', 'from': {...}, 'id': '888863661153948_889013927805588', 'like_count': 5, 'message': u'\\u6e96\\u78ba\\u4f86\\u8aaa\\uff0c\\u662f\\u6c92\\u5beb\\u9032\\u53bb\\u3002', 'user_likes': False}, {'can_remove': False, 'created_time': '2015-01-19T13:55:20+0000', 'from': {...}, 'id': '888863661153948_889053141135000', 'like_count': 6, 'message': u'\\u4f60\\u628a\\u624b\\u6cd5\\u6413\\u7834\\u4e86\\uff...u524d\\u5728\\u6a19\\u653f\\u5e9c\\u5de5\\u7a0b\\u7684)', 'user_likes': False}, {'can_remove': False, 'created_time': '2015-01-19T17:32:27+0000', 'from': {...}, 'id': '888863661153948_889140694459578', 'like_count': 1, 'message': u'Vincent Huang  \\u5982\\u679c\\u9810\\u7b97\\u4e0d\\...e8\\u7684\\u516c\\u95dc\\u516c\\u53f8\\u5de5\\u4f5c...)', 'user_likes': False}], 'paging': {'cursors': {'after': 'WTI5dGJXVnVkRjlqZFhKemIzSTZPRGc1TVRRd05qazBORFU1TlRjNE9qRTBNakUyT0RnM05EYz0=', 'before': 'WTI5dGJXVnVkRjlqZFhKemIzSTZPRGc0T0RneE1UTTNPREU0T0RZM09qRTBNakUyTkRZek1EQT0='}}}, 'created_time': '2015-01-19T04:43:40+0000', 'from': {'id': '955116411174101', 'name': u'\\u674e\\u627f\\u8b19'}, 'id': '888863661153948_888865324487115', 'like_count': 34, 'likes': {'data': [{'id': '973066252718619', 'name': u'\\u9673\\u6625\\u7f8e'}, {'id': '934495629907836', 'name': u'\\u9ec3\\u93f5\\u53f3'}, {'id': '285024584955249', 'name': 'Grace  Yang'}, {'id': '973821222630583', 'name': 'Shao-Hung Chen'}, {'id': '1584712815073858', 'name': 'Yang  KE'}, {'id': '1425729967720185', 'name': u'\\u590f\\u821f\\u55e3'}, {'id': '1013224652025090', 'name': 'Sofia Lee'}, {'id': '10205347139952231', 'name': 'Tzu-Chen Tsai'}, {'id': '451304701688924', 'name': 'Jeff  Lim'}, {'id': '10205267509463839', 'name': 'Elma Wang'}, {'id': '1037017322981169', 'name': 'Tung Yu Chiang'}, {'id': '10205948925585722', 'name': 'Herman Tseng'}, {'id': '955116411174101', 'name': u'\\u674e\\u627f\\u8b19'}, {'id': '10202883111473863', 'name': 'Eric Tai'}, {'id': '978835055467938', 'name': u'\\u6674\\u8015\\u96e8\\u8b80'}, {'id': '612712912196827', 'name': u'\\u9673\\u79c0\\u6797'}, {'id': '660290424096446', 'name': 'YingWei Cheng'}, {'id': '905080252859120', 'name': 'Yvonne Chen'}, {'id': '744796525618050', 'name': 'Su Xiao Yu'}, {'id': '1041644585851177', 'name': u'\\u9673\\u5fd7\\u4ec1'}, ...], 'paging': {'cursors': {'after': 'MTAyMDYwOTQ2MzM5OTA2NTI=', 'before': 'OTczMDY2MjUyNzE4NjE5'}}}, 'message': u'\\u72d7\\u6c11\\u9ee8\\u6c7a\\u7b56\\u7684\\u6bcf\\u50...u4ec0\\u9ebc\\u610f\\u7fa9\\u5b58\\u5728\\u5462?\\uff3f'}, {'comment_count': 0, 'created_time': '2015-01-19T05:43:33+0000', 'from': {'id': '1543981265870472', 'name': 'Shih Misha'}, 'id': '888863661153948_888880741152240', 'like_count': 31, 'likes': {'data': [{'id': '973066252718619', 'name': u'\\u9673\\u6625\\u7f8e'}, {'id': '10206039332726049', 'name': 'Jui Chu Chang'}, {'id': '10205379696724291', 'name': 'Amy H. T. Lin'}, {'id': '10203851031019050', 'name': 'Bulu Chang'}, {'id': '10203413556372570', 'name': 'Kuowei Hsiao'}, {'id': '958423244168756', 'name': u'\\u856d\\u6dd1\\u82b3'}, {'id': '1020832994611472', 'name': 'Shingstar Tsai'}, {'id': '10153178087999312', 'name': 'Hsin-Chieh Derrick Lin'}, {'id': '953086424710157', 'name': 'Aayo Lee'}, {'id': '938184356216100', 'name': 'Jason Lin'}, {'id': '1031054546909242', 'name': u'\\u9673\\u827e\\u744b'}, {'id': '934495629907836', 'name': u'\\u9ec3\\u93f5\\u53f3'}, {'id': '285024584955249', 'name': 'Grace  Yang'}, {'id': '973821222630583', 'name': 'Shao-Hung Chen'}, {'id': '922680474430890', 'name': 'Sue Ho'}, {'id': '1024453597568995', 'name': 'Anna Wang'}, {'id': '773197449423435', 'name': u'\\u79cb\\u9704'}, {'id': '601293640006467', 'name': u'\\u5ed6\\u6234\\u723e'}, {'id': '10202479270063285', 'name': 'Kao Blue'}, {'id': '1013224652025090', 'name': 'Sofia Lee'}, ...], 'paging': {'cursors': {'after': 'OTA1MDgwMjUyODU5MTIw', 'before': 'OTczMDY2MjUyNzE4NjE5'}}}, 'message': u'\\u6211\\u662f\\u53f0\\u4e2d\\u4eba\\uff0c\\u6c34\\u6e...\\u5c4b\\u88dc\\u52a9\\u624d\\u662f\\u529f\\u5fb7\\u554a'}, {'comment_count': 2, 'comments': {'data': [{'can_remove': False, 'created_time': '2015-01-19T10:32:24+0000', 'from': {...}, 'id': '888863661153948_888959331144381', 'like_count': 7, 'message': u'\\u53f0\\u4e2d\\u706b\\u8eca\\u7ad9\\u65c1\\u908a\\u4e...\\u77e5\\u9053\\u4f55\\u6642\\u624d\\u80fd\\u6539\\u5584', 'user_likes': False}, {'can_remove': False, 'created_time': '2015-01-19T16:52:02+0000', 'from': {...}, 'id': '888863661153948_889120444461603', 'like_count': 1, 'message': u'\\u81fa\\u4e2d\\u706b\\u8eca\\u7ad9\\u9031\\u570d\\u4e...\\u7159\\u7684\\u904a\\u6c11\\u5728\\u6d3b\\u52d5\\u3002', 'user_likes': False}], 'paging': {'cursors': {'after': 'WTI5dGJXVnVkRjlqZFhKemIzSTZPRGc1TVRJd05EUTBORFl4TmpBek9qRTBNakUyT0RZek1qST0=', 'before': 'WTI5dGJXVnVkRjlqZFhKemIzSTZPRGc0T1RVNU16TXhNVFEwTXpneE9qRTBNakUyTmpNMU5EUT0='}}}, 'created_time': '2015-01-19T05:27:01+0000', 'from': {'id': '362355237286052', 'name': u'\\u674e\\u827e\\u502b'}, 'id': '888863661153948_888876501152664', 'like_count': 23, 'likes': {'data': [{'id': '973066252718619', 'name': u'\\u9673\\u6625\\u7f8e'}, {'id': '10205379696724291', 'name': 'Amy H. T. Lin'}, {'id': '10203851031019050', 'name': 'Bulu Chang'}, {'id': '10153057275554831', 'name': 'Qinxuan Lin'}, {'id': '934495629907836', 'name': u'\\u9ec3\\u93f5\\u53f3'}, {'id': '285024584955249', 'name': 'Grace  Yang'}, {'id': '973821222630583', 'name': 'Shao-Hung Chen'}, {'id': '922680474430890', 'name': 'Sue Ho'}, {'id': '1024453597568995', 'name': 'Anna Wang'}, {'id': '773197449423435', 'name': u'\\u79cb\\u9704'}, {'id': '1013224652025090', 'name': 'Sofia Lee'}, {'id': '10153140129037079', 'name': 'James Hung'}, {'id': '619240294874565', 'name': 'Huang  Jason'}, {'id': '1034201149942181', 'name': u'\\u9673\\u82af'}, {'id': '818285204906093', 'name': u'\\u9673\\u7dad\\u5fb9'}, {'id': '362355237286052', 'name': u'\\u674e\\u827e\\u502b'}, {'id': '968037586541397', 'name': 'Sandy Tung'}, {'id': '859079734153321', 'name': u'\\u5409\\u7530'}, {'id': '1427015434257693', 'name': u'\\u5468\\u5f8c\\u88d4'}, {'id': '592098724267435', 'name': 'Felicity Lin'}, ...], 'paging': {'cursors': {'after': 'OTQzOTQ4MTI1NjIzNDQ3', 'before': 'OTczMDY2MjUyNzE4NjE5'}}}, 'message': u'\\u7528\\u90a3\\u4e9b\\u9322\\u628a\\u53f0\\u4e2d\\u76...u4eba\\u884c\\u9053\\u7684\\u6b98\\u7834\\u4e0d\\u582a!'}, {'comment_count': 4, 'comments': {'data': [{'can_remove': False, 'created_time': '2015-01-19T06:00:59+0000', 'from': {...}, 'id': '888863661153948_888884934485154', 'like_count': 6, 'message': u'\\u770b\\u770b\\u5176\\u4ed6\\u4f5c\\u54c1 \\u4e5f\\u6bd4\\u7b2c\\u4e00\\u540d\\u4f5c\\u54c1\\u597d', 'user_likes': False}, {'can_remove': False, 'created_time': '2015-01-19T06:03:57+0000', 'from': {...}, 'id': '888863661153948_888885537818427', 'like_count': 7, 'message': u'\\u7532\\u8cfd\\u52d5\\u505a\\u5de5\\u7a0b\\u5c31\\u66...84cb\\uff0c\\u6211\\u770b15\\u5104\\u90fd\\u4e0d\\u7528', 'user_likes': False}, {'can_remove': False, 'created_time': '2015-01-19T06:22:21+0000', 'from': {...}, 'id': '888863661153948_888889807818000', 'like_count': 3, 'message': u'\\u8d8a\\u597d\\u84cb\\u7684\\u7576\\u7136\\u8981\\u7b...\\u5bb6\\u624d\\u53ef\\u4ee5\\u62ff\\u8d8a\\u591a\\u9322', 'user_likes': False}, {'can_remove': False, 'created_time': '2015-01-19T06:39:35+0000', 'from': {...}, 'id': '888863661153948_888893817817599', 'like_count': 4, 'message': u'\\u8a55\\u5be9\\u5718\\u6fc0\\u70c8\\u722d\\u8faf\\uff...f\\u8a50\\u6b3a\\u55ce???\\u72d7\\u9ee8\\u8ca0\\u8cac!!', 'user_likes': False}], 'paging': {'cursors': {'after': 'WTI5dGJXVnVkRjlqZFhKemIzSTZPRGc0T0Rrek9ERTNPREUzTlRrNU9qRTBNakUyTkRrMU56VT0=', 'before': 'WTI5dGJXVnVkRjlqZFhKemIzSTZPRGc0T0RnME9UTTBORGcxTVRVME9qRTBNakUyTkRjeU5Uaz0='}}}, 'created_time': '2015-01-19T04:51:14+0000', 'from': {'id': '785363684873429', 'name': 'Jun De'}, 'id': '888863661153948_888867237820257', 'like_count': 18, 'likes': {'data': [{'id': '973066252718619', 'name': u'\\u9673\\u6625\\u7f8e'}, {'id': '1030276053653450', 'name': u'\\u795d\\u9298\\u4f51'}, {'id': '1567613636819862', 'name': 'Xuang Xiao'}, {'id': '1039739109374824', 'name': 'Rex Wu'}, {'id': '10202479270063285', 'name': 'Kao Blue'}, {'id': '1013224652025090', 'name': 'Sofia Lee'}, {'id': '451304701688924', 'name': 'Jeff  Lim'}, {'id': '10206213685612090', 'name': 'Julius Lim'}, {'id': '1559184157686901', 'name': 'Jimmy Tsai'}, {'id': '1042912725724418', 'name': u'\\u6797\\u6f6e\\u6176'}, {'id': '405873229584015', 'name': 'Julie Chou'}, {'id': '906448649376931', 'name': u'\\u90ed\\u6587\\u9d3b'}, {'id': '905080252859120', 'name': 'Yvonne Chen'}, {'id': '10202373644622083', 'name': 'Ming Hung Hsieh'}, {'id': '10202553117667700', 'name': u'\\u6c5f\\u4fe1\\u5b8f'}, {'id': '10205830597821301', 'name': 'Rick Lee'}, {'id': '1607890712768343', 'name': u'\\u4f0d\\u73fe\\u6dbc'}, {'id': '939138479463623', 'name': u'\\u5f35\\u5bb8\\u745c'}], 'paging': {'cursors': {'after': 'OTM5MTM4NDc5NDYzNjIz', 'before': 'OTczMDY2MjUyNzE4NjE5'}}}, 'message': u'http://forgemind.net/phpbb/viewtopic.php?t=218...\\u9df9\\u67b6\\u9084\\u4e0d\\u5982\\u4e0d\\u8981\\u84cb'}, {'comment_count': 0, 'created_time': '2015-01-19T04:49:50+0000', 'from': {'id': '1441030569520839', 'name': 'ChengYi Chen'}, 'id': '888863661153948_888866897820291', 'like_count': 14, 'likes': {'data': [{'id': '844584282280437', 'name': 'Fish Tsai'}, {'id': '973066252718619', 'name': u'\\u9673\\u6625\\u7f8e'}, {'id': '10203851031019050', 'name': 'Bulu Chang'}, {'id': '1567613636819862', 'name': 'Xuang Xiao'}, {'id': '10202479270063285', 'name': 'Kao Blue'}, {'id': '1013224652025090', 'name': 'Sofia Lee'}, {'id': '451304701688924', 'name': 'Jeff  Lim'}, {'id': '10203741873851672', 'name': 'Steffen Nien'}, {'id': '405873229584015', 'name': 'Julie Chou'}, {'id': '1543400269275087', 'name': u'\\u6d2a\\u65ed\\u797a'}, {'id': '660290424096446', 'name': 'YingWei Cheng'}, {'id': '966286183389116', 'name': u'\\u6797\\u4fe1\\u4ef2'}, {'id': '939138479463623', 'name': u'\\u5f35\\u5bb8\\u745c'}], 'paging': {'cursors': {'after': 'OTM5MTM4NDc5NDYzNjIz', 'before': 'ODQ0NTg0MjgyMjgwNDM3'}}}, 'message': u'\\u570b\\u6c11\\u9ee8\\u4e0d\\u5012\\uff0c\\u53f0\\u7063\\u4e0d\\u6703\\u597d\\u3002'}, {'comment_count': 0, 'created_time': '2015-01-19T04:55:01+0000', 'from': {'id': '793125854104587', 'name': u'\\u842c\\u7f8e\\u5a25'}, 'id': '888863661153948_888868221153492', 'like_count': 13, 'likes': {'data': [{'id': '973066252718619', 'name': u'\\u9673\\u6625\\u7f8e'}, {'id': '10206039332726049', 'name': 'Jui Chu Chang'}, {'id': '922680474430890', 'name': 'Sue Ho'}, {'id': '1013224652025090', 'name': 'Sofia Lee'}, {'id': '592098724267435', 'name': 'Felicity Lin'}, {'id': '968300166521268', 'name': 'Felicia Pai'}, {'id': '744796525618050', 'name': 'Su Xiao Yu'}, {'id': '10205830597821301', 'name': 'Rick Lee'}, {'id': '1543400269275087', 'name': u'\\u6d2a\\u65ed\\u797a'}, {'id': '451185718364834', 'name': u'\\u5f35\\u7389\\u7434'}, {'id': '939138479463623', 'name': u'\\u5f35\\u5bb8\\u745c'}, {'id': '813489465388380', 'name': 'Vincent Chen'}], 'paging': {'cursors': {'after': 'ODEzNDg5NDY1Mzg4Mzgw', 'before': 'OTczMDY2MjUyNzE4NjE5'}}}, 'message': u'\\u628a\\u9019\\u4e9b\\u9322\\u62ff\\u4f86\\u84cb\\u6a...u5712\\u548c\\u7da0\\u5316\\u4f86\\u7684\\u5be6\\u5728!'}, {'comment_count': 0, 'created_time': '2015-01-19T04:45:23+0000', 'from': {'id': '1585437838334908', 'name': u'\\u5433\\u6c38\\u8aa0'}, 'id': '888863661153948_888865844487063', 'like_count': 13, 'likes': {'data': [{'id': '844584282280437', 'name': 'Fish Tsai'}, {'id': '973066252718619', 'name': u'\\u9673\\u6625\\u7f8e'}, {'id': '922680474430890', 'name': 'Sue Ho'}, {'id': '1013224652025090', 'name': 'Sofia Lee'}, {'id': '451304701688924', 'name': 'Jeff  Lim'}, {'id': '10206213685612090', 'name': 'Julius Lim'}, {'id': '10205830597821301', 'name': 'Rick Lee'}, {'id': '939138479463623', 'name': u'\\u5f35\\u5bb8\\u745c'}, {'id': '793125854104587', 'name': u'\\u842c\\u7f8e\\u5a25'}, {'id': '1441030569520839', 'name': 'ChengYi Chen'}, {'id': '1543400269275087', 'name': u'\\u6d2a\\u65ed\\u797a'}, {'id': '1041626415854037', 'name': u'\\u5289\\u6dd1\\u5a1f'}], 'paging': {'cursors': {'after': 'MTA0MTYyNjQxNTg1NDAzNw==', 'before': 'ODQ0NTg0MjgyMjgwNDM3'}}}, 'message': u'\\u597d\\u5927\\u559c\\u529f\\u3001\\u7121\\u6240\\u88e8\\u76ca\\u7684\\u5efa\\u8a2d\\uff01'}, {'comment_count': 0, 'created_time': '2015-01-19T05:50:26+0000', 'from': {'id': '1059616257385966', 'name': 'Ming Yuan Yang'}, 'id': '888863661153948_888882561152058', 'like_count': 10, 'likes': {'data': [{'id': '973066252718619', 'name': u'\\u9673\\u6625\\u7f8e'}, {'id': '450160918473271', 'name': 'Youze Lin'}, {'id': '1013224652025090', 'name': 'Sofia Lee'}, {'id': '451304701688924', 'name': 'Jeff  Lim'}, {'id': '10206213685612090', 'name': 'Julius Lim'}, {'id': '939138479463623', 'name': u'\\u5f35\\u5bb8\\u745c'}, {'id': '1546401518944689', 'name': u'\\u5433\\u8ed2\\u777f'}, {'id': '660290424096446', 'name': 'YingWei Cheng'}, {'id': '905080252859120', 'name': 'Yvonne Chen'}], 'paging': {'cursors': {'after': 'OTA1MDgwMjUyODU5MTIw', 'before': 'OTczMDY2MjUyNzE4NjE5'}}}, 'message': u'\\u300c\\u932f\\u8aa4\\u6c7a\\u7b56\\u6bd4\\u8caa\\u6c61\\u66f4\\u53ef\\u6015\\u3002\\u300d\\u8b9a\\u5566!'}, {'comment_count': 0, 'created_time': '2015-01-19T05:48:18+0000', 'from': {'id': '968544729846084', 'name': 'Leesyan Huang'}, 'id': '888863661153948_888882061152108', 'like_count': 9, 'likes': {'data': [{'id': '973066252718619', 'name': u'\\u9673\\u6625\\u7f8e'}, {'id': '10206039332726049', 'name': 'Jui Chu Chang'}, {'id': '1013224652025090', 'name': 'Sofia Lee'}, {'id': '451304701688924', 'name': 'Jeff  Lim'}, {'id': '1034201149942181', 'name': u'\\u9673\\u82af'}, {'id': '968037586541397', 'name': 'Sandy Tung'}, {'id': '939138479463623', 'name': u'\\u5f35\\u5bb8\\u745c'}, {'id': '1543400269275087', 'name': u'\\u6d2a\\u65ed\\u797a'}], 'paging': {'cursors': {'after': 'MTU0MzQwMDI2OTI3NTA4Nw==', 'before': 'OTczMDY2MjUyNzE4NjE5'}}}, 'message': u'\\u80fd\\u70ba\\u767e\\u59d3\\u628a\\u95dc,\\u8b9a!! ...8cad\\u800c\\u975e\\u8a0e\\u597d\\u7684\\u9a19\\u5c40..'}, {'comment_count': 0, 'created_time': '2015-01-19T05:12:15+0000', 'from': {'id': '967298726614762', 'name': 'Toshihiko Liu'}, 'id': '888863661153948_888872634486384', 'like_count': 9, 'likes': {'data': [{'id': '10206039332726049', 'name': 'Jui Chu Chang'}, {'id': '1013224652025090', 'name': 'Sofia Lee'}, {'id': '619240294874565', 'name': 'Huang  Jason'}, {'id': '10206213685612090', 'name': 'Julius Lim'}, {'id': '10202601926449829', 'name': u'\\u9673\\u59ff\\u541b'}, {'id': '592098724267435', 'name': 'Felicity Lin'}, {'id': '10202553117667700', 'name': u'\\u6c5f\\u4fe1\\u5b8f'}, {'id': '10205830597821301', 'name': 'Rick Lee'}, {'id': '1543400269275087', 'name': u'\\u6d2a\\u65ed\\u797a'}], 'paging': {'cursors': {'after': 'MTU0MzQwMDI2OTI3NTA4Nw==', 'before': 'MTAyMDYwMzkzMzI3MjYwNDk='}}}, 'message': u'150E-3E=147E\\u6295\\u5165\\u6377\\u904b\\u5de5\\u7a0b'}, {'comment_count': 0, 'created_time': '2015-01-19T05:34:44+0000', 'from': {'id': '922137497805488', 'name': u'\\u9ec3\\u6f22\\u8ce2'}, 'id': '888863661153948_888878474485800', 'like_count': 8, 'likes': {'data': [{'id': '10204898308751060', 'name': 'Yen-Chih Fang'}, {'id': '1013224652025090', 'name': 'Sofia Lee'}, {'id': '451304701688924', 'name': 'Jeff  Lim'}, {'id': '939138479463623', 'name': u'\\u5f35\\u5bb8\\u745c'}, {'id': '1427015434257693', 'name': u'\\u5468\\u5f8c\\u88d4'}, {'id': '592098724267435', 'name': 'Felicity Lin'}, {'id': '905080252859120', 'name': 'Yvonne Chen'}, {'id': '451185718364834', 'name': u'\\u5f35\\u7389\\u7434'}], 'paging': {'cursors': {'after': 'NDUxMTg1NzE4MzY0ODM0', 'before': 'MTAyMDQ4OTgzMDg3NTEwNjA='}}}, 'message': u'\\u82b115000000000(\\u5e7e\\u500b0\\u554a\\u6e3e\\u8...u5712\\u8981\\u5e79\\u561b\\u4e86\\u80e1\\u5fd7\\u5f37?'}, ...], 'paging': {'cursors': {'after': 'NzE=', 'before': 'OTU='}, 'next': 'https://graph.facebook.com/v2.2/888863661153948/...ljT5WwQDclOxnzAEqlvqccKDai9T8XmSAdb0QI5a&limit=25', 'previous': 'https://graph.facebook.com/v2.2/888863661153948/...AEqlvqccKDai9T8XmSAdb0QI5a&limit=25&before=OTU%3D'}}"
p237
sS'r_message'
p238
S"'successfully added the comment into DB'"
p239
sS'person'
p240
S"{'id': '451185718364834', 'name': u'\\u5f35\\u7389\\u7434'}"
p241
sS'likes'
p242
S"[{'id': '1573938736197175', 'name': u'\\u9ec3\\u6587\\u6c82'}, {'id': '973066252718619', 'name': u'\\u9673\\u6625\\u7f8e'}, {'id': '1543400269275087', 'name': u'\\u6d2a\\u65ed\\u797a'}, {'id': '922680474430890', 'name': 'Sue Ho'}, {'id': '451185718364834', 'name': u'\\u5f35\\u7389\\u7434'}]"
p243
sssS'traceback'
p244
S'Traceback (most recent call last):\n  File "/Users/logyuan/Documents/web2py/gluon/restricted.py", line 220, in restricted\n    exec ccode in environment\n  File "/Users/logyuan/Documents/web2py/applications/fbbrt/controllers/newsAPI.py", line 536, in <module>\n  File "/Users/logyuan/Documents/web2py/gluon/globals.py", line 385, in <lambda>\n    self._caller = lambda f: f()\n  File "/Users/logyuan/Documents/web2py/applications/fbbrt/controllers/newsAPI.py", line 107, in test2\n    newsbrt.updateAllComments()\n  File "/Users/logyuan/Documents/web2py/applications/fbbrt/models/graph.py", line 605, in updateAllComments\n    getGroupNewsComment(fids)\n  File "/Users/logyuan/Documents/web2py/applications/fbbrt/models/graph.py", line 1778, in getGroupNewsComment\n    print \'post=   \'+ str(posts)\nIOError: [Errno 5] Input/output error\n'
p245
s.