(dp1
S'output'
p2
S"<class 'facebook.GraphAPIError'> An unexpected error has occurred. Please retry your request later."
p3
sS'layer'
p4
S'/Users/logyuan/Documents/web2py/applications/fbBrt/controllers/newsAPI.py'
p5
sS'code'
p6
S'# coding: utf8\n# try something like\nimport urllib\nimport json\nimport dateutil\nimport datetime\nimport string\nimport re\nimport itertools\nfrom collections import Counter\nfrom collections import OrderedDict\nfrom dateutil import parser\nfrom datetime import timedelta\nimport jieba\nimport jieba.analyse\nimport jieba.posseg as pseg\nfrom snownlp import SnowNLP\nfrom snownlp import sentiment\nfrom datetime import timedelta\nfrom operator import itemgetter\nimport codecs\nimport os\n\n#pos_train = os.path.join(request.folder,\'private\',\'dictionary\',\'pos.txt\')\n#nag_train = os.path.join(request.folder,\'private\',\'dictionary\',\'nag.txt\')\n#sentiment.train(pos_train, nag_train)\n\n#sentiment.save(os.path.join(request.folder,\'private\',\'sentiment.marshal\'))\n# sentiment.train(\'/usr/local/lib/python2.7/site-packages/snownlp/sentiment/blue.txt\', \'/usr/local/lib/python2.7/site-packages/snownlp/sentiment/green.txt\')\n#sentiment.save(\'/usr/local/lib/python2.7/site-packages/snownlp/sentiment/sentiment.marshal\')\n\n\ndictionary_path = os.path.join(request.folder,\'private\',\'dictionary\',\'dict.txt.big.txt\')\nuserdict_path = os.path.join(request.folder,\'private\',\'dictionary\',\'userdict.txt\')\nstopwords_path = os.path.join(request.folder,\'private\',\'dictionary\',\'stop_words.txt\')\nidf_path = os.path.join(request.folder,\'private\',\'dictionary\',\'idf.txt.big.txt\')\n\njieba.set_dictionary(dictionary_path)\njieba.load_userdict(userdict_path)\njieba.analyse.set_stop_words(stopwords_path)\njieba.analyse.set_idf_path(idf_path)\n\nstopwords_file = open(stopwords_path, \'r\')\nstopwords = [unicode(line.strip(\'\\n\'), "utf-8") for line in stopwords_file.readlines()]\n\n\n#jieba.initialize()\n\n\ndelEnStr = string.punctuation + \' \' + string.digits\ndelZhStr = u\'\xe3\x80\x8a\xe3\x80\x8b\xef\xbc\x88\xef\xbc\x89&%\xef\xbf\xa5#@\xef\xbc\x81{}\xe3\x80\x90\xe3\x80\x91\xe3\x80\x8c\xe3\x80\x8d\xe3\x80\x8e\xe3\x80\x8f\xef\xbc\x9f\xef\xbd\x9c\xef\xbc\x8c\xe3\x80\x81\xe3\x80\x82\xef\xbc\x9a\xef\xbc\x9b\xe4\xb8\xb6\xef\xbd\x9e\xe3\x80\x80\' + delEnStr.encode(\'utf8\')\n\n\ndef index():\n    started_time = datetime.datetime.now()\n    Brtnews24_url = "https://www.kimonolabs.com/api/47bg0pfm?apikey=22879e6cd7538eea6e95b90aa70afccc"\n    Brtnews7days_url = "https://www.kimonolabs.com/api/ajldjyxq?apikey=22879e6cd7538eea6e95b90aa70afccc"\n    Brtnews30days_url = "https://www.kimonolabs.com/api/5xnus1ws?apikey=22879e6cd7538eea6e95b90aa70afccc"\n    Brtnews1year_url = "https://www.kimonolabs.com/api/d1shcaww?apikey=22879e6cd7538eea6e95b90aa70afccc"\n    kimono_api(Brtnews1year_url, "BRT")\n    \n\n    mayor24_url = "https://www.kimonolabs.com/api/7br3eu62?apikey=22879e6cd7538eea6e95b90aa70afccc"\n    mayor7days_url = "https://www.kimonolabs.com/api/863lok12?apikey=22879e6cd7538eea6e95b90aa70afccc"\n    mayor30days_url = "https://www.kimonolabs.com/api/8h259vhq?apikey=22879e6cd7538eea6e95b90aa70afccc"\n    mayor1year_url = "https://www.kimonolabs.com/api/cs5dtbm0?apikey=22879e6cd7538eea6e95b90aa70afccc"\n    #kimono_api(mayor1year_url, "\xe6\x9e\x97\xe4\xbd\xb3\xe9\xbe\x8d")\n\n    today = datetime.datetime.today()\n    date = today - timedelta(days=3)\n    fromdate = datetime.datetime.strftime(date, "%Y/%m/%d")\n    todate = datetime.datetime.strftime(today, "%Y/%m/%d")\n    #checkDBNewsComments()\n    #checkDBNewsCommentsFromDate(fromdate)\n    ended_time = datetime.datetime.now()\n    fbdb.event_logs.insert(function=\'kimono_api\', started_time=started_time, ended_time=ended_time)\n    fbdb.commit()\n    started_time = datetime.datetime.now()\n    Socialcount()\n    ended_time = datetime.datetime.now()\n    fbdb.event_logs.insert(function=\'updateSocialcount\', started_time=started_time, ended_time=ended_time)\n    fbdb.commit()\n    started_time = datetime.datetime.now()\n    checkDBNewsComments()\n    ended_time = datetime.datetime.now()\n    fbdb.event_logs.insert(function=\'checkDBNewsComments\', started_time=started_time, ended_time=ended_time)\n    fbdb.commit()\n\n\n\n\n    return "OK"\n\ndef test():\n    return response.json(get_og_url(\'http://news.ltn.com.tw/news/opinion/breakingnews/1222089\'))\n\ndef test2():\n    t=News("http://www.appledaily.com.tw/realtimenews/article/new/20150112/540406/")\n    t.updateNewComments()\n    return t.Comments\n\n\ndef commentsByKeywords():\n    key = \'%\xe5\xa5\xb3\xe6\x80\xa7%\'\n    rows = fbdb(fbdb.news.summary.like(key)).select()\n    newslist = []\n    for row in rows:\n        if row["fid"] != None:\n            newslist.append(row["fid"])\n    rows = fbdb(fbdb.news_comments.news_fid.belongs(newslist)).select()\n    comments = []\n    likes = []\n    for row in rows:\n        if row["like_count"] > 10:\n            news = fbdb(fbdb.news.fid == row["news_fid"]).select().first()\n            comments.append(\'news_title:\' + row["news_fid"] + news["title"] + \' like_count:\' + str(\n                row["like_count"]) + \' message: \' + row["message"])\n            likes.append(row["like_count"])\n    likes, comments = [list(x) for x in zip(*sorted(zip(likes, comments), key=itemgetter(0), reverse=True))]\n\n    return dict(comments=comments)\n\n@auth.requires_login()\ndef Socialcount():\n    rows = fbdb(fbdb.news.id <> \'\').select()\n    for row in rows:\n        news_object = News(row.href)\n        news_object.updateSocialCount()\n\n    return \'OK\'\n\ndef fix_url():\n    rows = fbdb(fbdb.news_comments.news_fid == None).select()\n    for row in rows:\n        fid = row["fid"]\n        news_fid = fid.split(\'_\')[0]\n        #url = "http://" + urllib.quote(href.split("http://")[1])\n        #og = get_og_url(url)\n        #fid = og["fid"]\n        #fb_url = og["fb_url"]\n\n        row.update_record(news_fid=news_fid)\n\n@auth.requires_login()\ndef update_socialcount():\n    rows = fbdb(fbdb.news.fid <> None).select()\n    test=[]\n    for row in rows:\n        news_object = News(row.href)\n        test.append(news_object.fb_url)\n        news_object.updateSocialCount()\n        \n\n    return test\n\ndef fix_seg():\n    rows = fbdb(fbdb.news_comments.id <> \'\').select()\n    for row in rows:\n        message = row["message"]\n        segment = list(jieba.cut(message))\n        row.update_record(segment=segment)\n\n\ndef kimono_api(url, from_team):\n    response = urllib.urlopen(url)\n    data = json.load(response)\n    updatedtime = parser.parse(data["lastsuccess"]) + timedelta(hours=8)\n    news_array = data["results"]["collection1"]\n    for news in news_array:\n        date_time = news["datetime"]\n        if u\' \xe5\xb0\x8f\xe6\x99\x82\xe5\x89\x8d\' in date_time:\n            hours = int(date_time.strip(u\' \xe5\xb0\x8f\xe6\x99\x82\xe5\x89\x8d\'))\n            date_time = updatedtime - timedelta(hours=hours)\n        elif u\' \xe5\x88\x86\xe9\x90\x98\xe5\x89\x8d\' in date_time:\n            minutes = int(date_time.strip(u\' \xe5\x88\x86\xe9\x90\x98\xe5\x89\x8d\'))\n            date_time = updatedtime - timedelta(minutes=minutes)\n        else:\n            date_time = date_time.replace(u\'\xe5\xb9\xb4\', \'/\').replace(u\'\xe6\x9c\x88\', \'/\').strip(u\'\xe6\x97\xa5\')\n            date_time = parser.parse(date_time) + timedelta(hours=12)\n\n        source = news["source"]\n        summary = news["summary"]\n        title = news["title"]["text"]\n        href = news["title"]["href"]\n        photo = news["photo"]["src"] if \'src\' in news["photo"] else \'\'\n\n        related_news = []\n        related_news_date_time = []\n        related_news_source = []\n\n        # if isinstance(news["related_news_datetime"], list):\n        #     for item in news["related_news_datetime"]:\n        #         if u\' \xe5\xb0\x8f\xe6\x99\x82\xe5\x89\x8d\' in item:\n        #             hours = int(item.strip(u\' \xe5\xb0\x8f\xe6\x99\x82\xe5\x89\x8d\'))\n        #             item = updated_time - timedelta(hours=hours)\n        #             related_news_date_time.append(item)\n        #         elif u\' \xe5\x88\x86\xe9\x90\x98\xe5\x89\x8d\' in item:\n        #             minutes = int(item.strip(u\' \xe5\x88\x86\xe9\x90\x98\xe5\x89\x8d\'))\n        #             item = updated_time - timedelta(minutes=minutes)\n        #             related_news_date_time.append(item)\n        #         else:\n        #             item = item.replace(u\'\xe5\xb9\xb4\', \'/\').replace(u\'\xe6\x9c\x88\', \'/\').strip(u\'\xe6\x97\xa5\')\n        #             item = parser.parse(item) + timedelta(hours=12)\n        #             related_news_date_time.append(item)\n        #     related_news = news["related_news"]\n        #     related_news_source = news["related_news_source"]\n        # elif news["related_news_datetime"] == "":\n        #     pass\n        # else:\n        #     if u\' \xe5\xb0\x8f\xe6\x99\x82\xe5\x89\x8d\' in news["related_news_datetime"]:\n        #         hours = int(news["related_news_datetime"].strip(u\' \xe5\xb0\x8f\xe6\x99\x82\xe5\x89\x8d\'))\n        #         related_news_date_time2 = updated_time - timedelta(hours=hours)\n        #     elif u\' \xe5\x88\x86\xe9\x90\x98\xe5\x89\x8d\' in news["related_news_datetime"]:\n        #         minutes = int(news["related_news_datetime"].strip(u\' \xe5\x88\x86\xe9\x90\x98\xe5\x89\x8d\'))\n        #         related_news_date_time2 = updated_time - timedelta(minutes=minutes)\n        #     else:\n        #         related_news_date_time2 = news["related_news_datetime"].replace(u\'\xe5\xb9\xb4\', \'/\').replace(u\'\xe6\x9c\x88\', \'/\').strip(\n        #             u\'\xe6\x97\xa5\')\n        #         related_news_date_time2 = parser.parse(related_news_date_time2) + timedelta(hours=12)\n        #\n        #     related_news.append(news["related_news"])\n        #     related_news_date_time.append(related_news_date_time2)\n        #     related_news_source.append(news["related_news_source"])\n        if href != \'\':\n            #url = "http://" + urllib.quote(href.split("http://")[1])\n            href = href.strip()\n            url2 = href.split("://")[0] + "://" + urllib.quote(href.split("://")[1])\n            og = get_og_url(url2)\n            # fid = og["fid"]\n            # fb_url = og["fb_url"]\n            # created_time = og["created_time"]\n            # updated_time = og["updated_time"]\n            # share_count = og["share_count"]\n            # comment_count = og["comment_count"]\n            if og["title"] == None:\n                og["title"] = title\n            fbdb.news.update_or_insert(fbdb.news.href==href,from_team=from_team, href=href,summary=summary, source=source, date_time=date_time,  **og)\n            # fbdb.news.update_or_insert(fbdb.news.href==href, fb_url=fb_url, href=href, created_time=created_time,updated_time=updated_time, date_time=date_time, source=source, summary=summary, title=title, photo=photo, related_news=json.dumps(related_news),\n            #                  related_news_date_time=related_news_date_time,\n            #                  related_news_source=json.dumps(related_news_source), from_team=from_team,\n            #                  share_count=share_count, comment_count=comment_count)\n            fbdb.commit()\n\n                #getUrlSocialCount(fb_url)\n\n    return json.dumps(data)\n    #return "Success!"\n    #return dict(message="hello from newsAPI.py")\n\ndef checkDBNewsCommentsFromDate(from_date):\n    from_date = datetime.datetime.strptime(from_date, "%Y/%m/%d")\n    rows = fbdb(fbdb.news.date_time >= from_date).select()\n    for row in rows:\n        ids = row["fid"]\n        if ids != None:\n            #ids = "http://" + urllib.quote(ids.split("http://")[1])\n            from_team = row["from_team"]\n            news_source = row["source"]\n            getNewsComments(ids, from_team, news_source)\n\n@auth.requires_login()\ndef checkDBNewsComments():\n    rows = fbdb((fbdb.news.fid <> None) & (fbdb.news.comment_count > 0)).select()  #\n    for row in rows:\n        ids = row["fid"]\n        href = row["href"]\n        if ids != None:\n            #ids = "http://" + urllib.quote(ids.split("http://")[1])\n            from_team = row["from_team"]\n            news_source = row["source"]\n            getNewsComments(ids, from_team, news_source, href)\n\n    return "Ok"\n\ndef BestComments():\n    stoplist = list(delZhStr)\n    stoplist.extend(stopwords)\n    p_wordclouds = []\n    p_wordcloud = []\n    p_wordclouds2 = []\n\n    male_wordcloud = []\n    female_wordcloud = []\n\n    male_wordclouds = []\n    male_wordclouds_a = []\n    male_wordclouds_n = []\n    male_wordclouds_nr = []\n    male_wordclouds_v = []\n\n    female_wordclouds = []\n    female_wordclouds_a = []\n    female_wordclouds_n = []\n    female_wordclouds_nr = []\n    female_wordclouds_v = []\n\n    male_wordcloud_a = []\n    male_wordcloud_n = []\n    male_wordcloud_nr = []\n    male_wordcloud_v = []\n\n    female_wordcloud_a = []\n    female_wordcloud_n = []\n    female_wordcloud_nr = []\n    female_wordcloud_v = []\n\n    wordcloud_a = []\n    wordcloud_n = []\n    wordcloud_nr = []\n    wordcloud_v = []\n    wordcloud_a2 = []\n    wordcloud_n2 = []\n    wordcloud_nr2 = []\n    wordcloud_v2 = []\n\n    now = datetime.datetime.today()\n    q_time = now - timedelta(days=7)\n    #rows = fbdb((fbdb.news_comments.like_count >= 1)&(fbdb.news_comments.from_team==\'\xe9\x80\xa3\xe5\x8b\x9d\xe6\x96\x87\')&(fbdb.news_comments.created_time >=q_time)).select()\n    rows = fbdb(fbdb.news_comments.id <> \'\').select()\n    for row in rows:\n        #segments = list(set(row[\'segment\']))\n        segments = pseg.cut(row[\'message\'])\n        count = row["like_count"]  #// 10\n        #count= 1\n        wordclouds_a = []\n        wordclouds_n = []\n        wordclouds_nr = []\n        wordclouds_v = []\n        for j in range(0, count):\n            for i in segments:\n                if (i.word not in stoplist):\n                    p_wordclouds2.append(i.word)\n                if (re.search("^a", i.flag) <> None) & (i.word not in stoplist):\n                    wordclouds_a.append(i.word)\n                elif (i.flag == \'n\') & (i.word not in stoplist):\n                    wordclouds_n.append(i.word)\n                elif (i.flag == \'nr\') & (i.word not in stoplist):\n                    wordclouds_nr.append(i.word)\n                elif (re.search("^v", i.flag) <> None) & (i.word not in stoplist):\n                    wordclouds_v.append(i.word)\n        p_wordclouds.extend(p_wordclouds2)\n        userid = row["from_id"]\n        user = fbdb(fbdb.people.uid == userid).select().first()\n        sex = user[\'gender\'] if user else None\n        #likes = row[\'likes\'] if ((\'likes\' in row) & (row[\'likes\'] != None) & (row[\'likes\'] != {})) else []\n        #for like in likes:\n        wordcloud_a2.extend(list(set(wordclouds_a)))\n        wordcloud_n2.extend(list(set(wordclouds_n)))\n        wordcloud_nr2.extend(list(set(wordclouds_nr)))\n        wordcloud_v2.extend(list(set(wordclouds_v)))\n\n        if sex == \'female\':\n            female_wordclouds.extend(list(set(p_wordclouds2)))\n            female_wordclouds_a.extend(list(set(wordclouds_a)))\n            female_wordclouds_n.extend(list(set(wordclouds_n)))\n            female_wordclouds_nr.extend(list(set(wordclouds_nr)))\n            female_wordclouds_v.extend(list(set(wordclouds_v)))\n        elif sex == \'male\':\n            male_wordclouds.extend(list(set(p_wordclouds2)))\n            male_wordclouds_a.extend(list(set(wordclouds_a)))\n            male_wordclouds_n.extend(list(set(wordclouds_n)))\n            male_wordclouds_nr.extend(list(set(wordclouds_nr)))\n            male_wordclouds_v.extend(list(set(wordclouds_v)))\n        else:\n            pass\n    for item in Counter(wordcloud_a2).most_common(150):\n        #s = SnowNLP(item[0]) , \'tag\': s.tags\n        wordcloud_a.append({\'name\': item[0], \'size\': item[1]})\n    for item in Counter(wordcloud_n2).most_common(150):\n        #s = SnowNLP(item[0]) , \'tag\': s.tags\n        wordcloud_n.append({\'name\': item[0], \'size\': item[1]})\n    for item in Counter(wordcloud_nr2).most_common(150):\n        #s = SnowNLP(item[0]) , \'tag\': s.tags\n        wordcloud_nr.append({\'name\': item[0], \'size\': item[1]})\n    for item in Counter(wordcloud_v2).most_common(150):\n        #s = SnowNLP(item[0]) , \'tag\': s.tags\n        wordcloud_v.append({\'name\': item[0], \'size\': item[1]})\n\n    for item in Counter(female_wordclouds).most_common(150):\n        #s = SnowNLP(item[0]) , \'tag\': s.tags\n        female_wordcloud.append({\'name\': item[0], \'size\': item[1]})\n    for item in Counter(male_wordclouds).most_common(150):\n        #s = SnowNLP(item[0]) , \'tag\': s.tags\n        male_wordcloud.append({\'name\': item[0], \'size\': item[1]})\n\n    list_a_female100 = []\n    list_n_female100 = []\n    list_nr_female100 = []\n    list_v_female100 = []\n\n    for item in Counter(female_wordclouds_a).most_common(100):\n        #s = SnowNLP(item[0]) , \'tag\': s.tags\n        female_wordcloud_a.append({\'name\': item[0], \'size\': item[1]})\n        list_a_female100.append(item[0])\n\n    for item in Counter(female_wordclouds_n).most_common(100):\n        #s = SnowNLP(item[0]) , \'tag\': s.tags\n        female_wordcloud_n.append({\'name\': item[0], \'size\': item[1]})\n        list_n_female100.append(item[0])\n\n    for item in Counter(female_wordclouds_nr).most_common(100):\n        #s = SnowNLP(item[0]) , \'tag\': s.tags\n        female_wordcloud_nr.append({\'name\': item[0], \'size\': item[1]})\n        list_nr_female100.append(item[0])\n\n    for item in Counter(female_wordclouds_v).most_common(100):\n        #s = SnowNLP(item[0]) , \'tag\': s.tags\n        female_wordcloud_v.append({\'name\': item[0], \'size\': item[1]})\n        list_v_female100.append(item[0])\n\n    list_a_male100 = []\n    list_n_male100 = []\n    list_nr_male100 = []\n    list_v_male100 = []\n\n    for item in Counter(male_wordclouds_a).most_common(100):\n        #s = SnowNLP(item[0]) , \'tag\': s.tags\n        male_wordcloud_a.append({\'name\': item[0], \'size\': item[1]})\n        list_a_male100.append(item[0])\n\n    for item in Counter(male_wordclouds_n).most_common(100):\n        #s = SnowNLP(item[0]) , \'tag\': s.tags\n        male_wordcloud_n.append({\'name\': item[0], \'size\': item[1]})\n        list_n_male100.append(item[0])\n\n    for item in Counter(male_wordclouds_nr).most_common(100):\n        #s = SnowNLP(item[0]) , \'tag\': s.tags\n        male_wordcloud_nr.append({\'name\': item[0], \'size\': item[1]})\n        list_nr_male100.append(item[0])\n\n    for item in Counter(male_wordclouds_v).most_common(100):\n        #s = SnowNLP(item[0]) , \'tag\': s.tags\n        male_wordcloud_v.append({\'name\': item[0], \'size\': item[1]})\n        list_v_male100.append(item[0])\n\n    female_wordcloud_a_special = []\n    female_wordcloud_n_special = []\n    female_wordcloud_nr_special = []\n    female_wordcloud_v_special = []\n\n    for item in Counter(female_wordclouds_a).most_common(100):\n        if item[0] not in list_a_male100:\n            female_wordcloud_a_special.append({\'name\': item[0], \'size\': item[1]})\n\n    for item in Counter(female_wordclouds_n).most_common(100):\n        if item[0] not in list_n_male100:\n            female_wordcloud_n_special.append({\'name\': item[0], \'size\': item[1]})\n\n    for item in Counter(female_wordclouds_nr).most_common(100):\n        if item[0] not in list_nr_male100:\n            female_wordcloud_nr_special.append({\'name\': item[0], \'size\': item[1]})\n\n    for item in Counter(female_wordclouds_v).most_common(100):\n        if item[0] not in list_v_male100:\n            female_wordcloud_v_special.append({\'name\': item[0], \'size\': item[1]})\n\n    male_wordcloud_a_special = []\n    male_wordcloud_n_special = []\n    male_wordcloud_nr_special = []\n    male_wordcloud_v_special = []\n\n    for item in Counter(male_wordclouds_a).most_common(100):\n        if item[0] not in list_a_female100:\n            male_wordcloud_a_special.append({\'name\': item[0], \'size\': item[1]})\n\n    for item in Counter(male_wordclouds_n).most_common(100):\n        if item[0] not in list_n_female100:\n            male_wordcloud_n_special.append({\'name\': item[0], \'size\': item[1]})\n\n    for item in Counter(male_wordclouds_nr).most_common(100):\n        if item[0] not in list_nr_female100:\n            male_wordcloud_nr_special.append({\'name\': item[0], \'size\': item[1]})\n\n    for item in Counter(male_wordclouds_v).most_common(100):\n        if item[0] not in list_v_female100:\n            male_wordcloud_v_special.append({\'name\': item[0], \'size\': item[1]})\n\n    flare = {}\n    flare = {"name": "flare", "children": [{"name": "female_wordcloud",\n                                            "children": [{"name": "adj", "children": female_wordcloud_a_special},\n                                                         {"name": "v", "children": female_wordcloud_v_special},\n                                                         {"name": "nr", "children": female_wordcloud_nr_special},\n                                                         {"name": "n", "children": female_wordcloud_n_special}]}]}\n\n    f = open(os.path.join(request.folder,\'private\',\'d3\',\'BestComments_female.json\'), \'w+\')\n    f.write(json.dumps(flare, sort_keys=False, separators=(\',\', \':\'), indent=4))\n    f.close()\n    flare = {}\n    flare = {"name": "flare", "children": [{"name": "male_wordcloud",\n                                            "children": [{"name": "adj", "children": male_wordcloud_a_special},\n                                                         {"name": "v", "children": male_wordcloud_v_special},\n                                                         {"name": "nr", "children": male_wordcloud_nr_special},\n                                                         {"name": "n", "children": male_wordcloud_n_special}]}]}\n    f = open(os.path.join(request.folder,\'private\',\'d3\',\'BestComments_male.json\'), \'w+\')\n    f.write(json.dumps(flare, sort_keys=False, separators=(\',\', \':\'), indent=4))\n    f.close()\n\n    flare = {}\n    flare = {"name": "flare", "children": [{"name": "wordcloud", "children": [{"name": "adj", "children": wordcloud_a},\n                                                                              {"name": "v", "children": wordcloud_v},\n                                                                              {"name": "nr", "children": wordcloud_nr},\n                                                                              {"name": "n", "children": wordcloud_n}]}]}\n    f = open(os.path.join(request.folder,\'private\',\'d3\',\'BestComments.json\'), \'w+\')\n    f.write(json.dumps(flare, sort_keys=False, separators=(\',\', \':\'), indent=4))\n    f.close()\n\n    f = codecs.open(os.path.join(request.folder,\'private\',\'d3\',\'wordcloud.txt\'), \'w+\', \'utf-8\')\n    for item in list(set(p_wordclouds)):\n        f.write(item + \'\\n\')\n    f.close()\n\n    return dict(message="OK")\n    #return len(rows)\n    #return json.dumps(female_wordclouds_nr)\n\n\n\ndef delay():\n    time.sleep(1.5)\n\nresponse._vars=response._caller(checkDBNewsComments)\n'
p7
sS'snapshot'
p8
(dp9
S'exception'
p10
(dp11
S'__module__'
p12
S"'facebook'"
p13
sS'__getslice__'
p14
S"<method-wrapper '__getslice__' of GraphAPIError object>"
p15
sS'__str__'
p16
S"<method-wrapper '__str__' of GraphAPIError object>"
p17
sS'__reduce__'
p18
S'<built-in method __reduce__ of GraphAPIError object>'
p19
sS'result'
p20
S"{'error': {'code': 2, 'is_transient': True, 'message': 'An unexpected error has occurred. Please retry your request later.', 'type': 'OAuthException'}}"
p21
sS'__dict__'
p22
S"{'message': 'An unexpected error has occurred. Please retry your request later.', 'result': {'error': {'code': 2, 'is_transient': True, 'message': 'An unexpected error has occurred. Please retry your request later.', 'type': 'OAuthException'}}, 'type': ''}"
p23
sS'__sizeof__'
p24
S'<built-in method __sizeof__ of GraphAPIError object>'
p25
sS'__weakref__'
p26
S'None'
p27
sS'__init__'
p28
S"<bound method GraphAPIError.__init__ of GraphAPI...as occurred. Please retry your request later.',)>"
p29
sS'__setattr__'
p30
S"<method-wrapper '__setattr__' of GraphAPIError object>"
p31
sS'__reduce_ex__'
p32
S'<built-in method __reduce_ex__ of GraphAPIError object>'
p33
sS'__new__'
p34
S'<built-in method __new__ of type object>'
p35
sS'__format__'
p36
S'<built-in method __format__ of GraphAPIError object>'
p37
sS'__class__'
p38
S"<class 'facebook.GraphAPIError'>"
p39
sS'type'
p40
S"''"
p41
sS'__doc__'
p42
S'None'
p43
sS'__getitem__'
p44
S"<method-wrapper '__getitem__' of GraphAPIError object>"
p45
sS'__setstate__'
p46
S'<built-in method __setstate__ of GraphAPIError object>'
p47
sS'__getattribute__'
p48
S"<method-wrapper '__getattribute__' of GraphAPIError object>"
p49
sS'args'
p50
S"('An unexpected error has occurred. Please retry your request later.',)"
p51
sS'__subclasshook__'
p52
S'<built-in method __subclasshook__ of type object>'
p53
sS'__unicode__'
p54
S'<built-in method __unicode__ of GraphAPIError object>'
p55
sS'__delattr__'
p56
S"<method-wrapper '__delattr__' of GraphAPIError object>"
p57
sS'__repr__'
p58
S"<method-wrapper '__repr__' of GraphAPIError object>"
p59
sS'__hash__'
p60
S"<method-wrapper '__hash__' of GraphAPIError object>"
p61
ssS'evalue'
p62
S'An unexpected error has occurred. Please retry your request later.'
p63
sS'request'
p64
cgluon.html
XML_unpickle
p65
(S'sB\\\x00\x00<div><table><tr><td style="font-weight:bold;vertical-align:top;">ajax</td><td style="vertical-align:top;">:</td><td><div>False</div></td></tr><tr><td style="font-weight:bold;vertical-align:top;">application</td><td style="vertical-align:top;">:</td><td><div>fbBrt</div></td></tr><tr><td style="font-weight:bold;vertical-align:top;">args</td><td style="vertical-align:top;">:</td><td><div><table></table></div></td></tr><tr><td style="font-weight:bold;vertical-align:top;">cid</td><td style="vertical-align:top;">:</td><td><div>None</div></td></tr><tr><td style="font-weight:bold;vertical-align:top;">client</td><td style="vertical-align:top;">:</td><td><div>127.0.0.1</div></td></tr><tr><td style="font-weight:bold;vertical-align:top;">controller</td><td style="vertical-align:top;">:</td><td><div>newsAPI</div></td></tr><tr><td style="font-weight:bold;vertical-align:top;">cookies</td><td style="vertical-align:top;">:</td><td><div><table><tr><td style="font-weight:bold;vertical-align:top;">session_id_admin</td><td style="vertical-align:top;">:</td><td><div>127.0.0.1-9af2c555-3449-4e45-8085-df8d161e40ce<table><tr><td style="font-weight:bold;vertical-align:top;">comment</td><td style="vertical-align:top;">:</td><td><div></div></td></tr><tr><td style="font-weight:bold;vertical-align:top;">domain</td><td style="vertical-align:top;">:</td><td><div></div></td></tr><tr><td style="font-weight:bold;vertical-align:top;">expires</td><td style="vertical-align:top;">:</td><td><div></div></td></tr><tr><td style="font-weight:bold;vertical-align:top;">httponly</td><td style="vertical-align:top;">:</td><td><div></div></td></tr><tr><td style="font-weight:bold;vertical-align:top;">max-age</td><td style="vertical-align:top;">:</td><td><div></div></td></tr><tr><td style="font-weight:bold;vertical-align:top;">path</td><td style="vertical-align:top;">:</td><td><div></div></td></tr><tr><td style="font-weight:bold;vertical-align:top;">secure</td><td style="vertical-align:top;">:</td><td><div></div></td></tr><tr><td style="font-weight:bold;vertical-align:top;">version</td><td style="vertical-align:top;">:</td><td><div></div></td></tr></table></div></td></tr><tr><td style="font-weight:bold;vertical-align:top;">session_id_fbbrt</td><td style="vertical-align:top;">:</td><td><div>127.0.0.1-26163b22-906c-4f6c-a8b7-853e6d53d1d1<table><tr><td style="font-weight:bold;vertical-align:top;">comment</td><td style="vertical-align:top;">:</td><td><div></div></td></tr><tr><td style="font-weight:bold;vertical-align:top;">domain</td><td style="vertical-align:top;">:</td><td><div></div></td></tr><tr><td style="font-weight:bold;vertical-align:top;">expires</td><td style="vertical-align:top;">:</td><td><div></div></td></tr><tr><td style="font-weight:bold;vertical-align:top;">httponly</td><td style="vertical-align:top;">:</td><td><div></div></td></tr><tr><td style="font-weight:bold;vertical-align:top;">max-age</td><td style="vertical-align:top;">:</td><td><div></div></td></tr><tr><td style="font-weight:bold;vertical-align:top;">path</td><td style="vertical-align:top;">:</td><td><div></div></td></tr><tr><td style="font-weight:bold;vertical-align:top;">secure</td><td style="vertical-align:top;">:</td><td><div></div></td></tr><tr><td style="font-weight:bold;vertical-align:top;">version</td><td style="vertical-align:top;">:</td><td><div></div></td></tr></table></div></td></tr><tr><td style="font-weight:bold;vertical-align:top;">session_id_welcome</td><td style="vertical-align:top;">:</td><td><div>127.0.0.1-6e85adf7-33b1-401a-920c-1b9fb8d16431<table><tr><td style="font-weight:bold;vertical-align:top;">comment</td><td style="vertical-align:top;">:</td><td><div></div></td></tr><tr><td style="font-weight:bold;vertical-align:top;">domain</td><td style="vertical-align:top;">:</td><td><div></div></td></tr><tr><td style="font-weight:bold;vertical-align:top;">expires</td><td style="vertical-align:top;">:</td><td><div></div></td></tr><tr><td style="font-weight:bold;vertical-align:top;">httponly</td><td style="vertical-align:top;">:</td><td><div></div></td></tr><tr><td style="font-weight:bold;vertical-align:top;">max-age</td><td style="vertical-align:top;">:</td><td><div></div></td></tr><tr><td style="font-weight:bold;vertical-align:top;">path</td><td style="vertical-align:top;">:</td><td><div></div></td></tr><tr><td style="font-weight:bold;vertical-align:top;">secure</td><td style="vertical-align:top;">:</td><td><div></div></td></tr><tr><td style="font-weight:bold;vertical-align:top;">version</td><td style="vertical-align:top;">:</td><td><div></div></td></tr></table></div></td></tr></table></div></td></tr><tr><td style="font-weight:bold;vertical-align:top;">env</td><td style="vertical-align:top;">:</td><td><div><table><tr><td style="font-weight:bold;vertical-align:top;">HTTP_ACCEPT</td><td style="vertical-align:top;">:</td><td><div>text/html,application/xhtml+xml,application/xml;q=0.9,*/*;q=0.8</div></td></tr><tr><td style="font-weight:bold;vertical-align:top;">HTTP_ACCEPT_ENCODING</td><td style="vertical-align:top;">:</td><td><div>gzip, deflate</div></td></tr><tr><td style="font-weight:bold;vertical-align:top;">HTTP_ACCEPT_LANGUAGE</td><td style="vertical-align:top;">:</td><td><div>en-us</div></td></tr><tr><td style="font-weight:bold;vertical-align:top;">HTTP_CONNECTION</td><td style="vertical-align:top;">:</td><td><div>keep-alive</div></td></tr><tr><td style="font-weight:bold;vertical-align:top;">HTTP_COOKIE</td><td style="vertical-align:top;">:</td><td><div>session_id_admin=127.0.0.1-9af2c555-3449-4e45-8085-df8d161e40ce; session_id_fbbrt=127.0.0.1-26163b22-906c-4f6c-a8b7-853e6d53d1d1; session_id_welcome=127.0.0.1-6e85adf7-33b1-401a-920c-1b9fb8d16431</div></td></tr><tr><td style="font-weight:bold;vertical-align:top;">HTTP_HOST</td><td style="vertical-align:top;">:</td><td><div>localhost:8088</div></td></tr><tr><td style="font-weight:bold;vertical-align:top;">HTTP_USER_AGENT</td><td style="vertical-align:top;">:</td><td><div>Mozilla/5.0 (Macintosh; Intel Mac OS X 10_10_2) AppleWebKit/600.3.18 (KHTML, like Gecko) Version/8.0.3 Safari/600.3.18</div></td></tr><tr><td style="font-weight:bold;vertical-align:top;">PATH_INFO</td><td style="vertical-align:top;">:</td><td><div>/fbBrt/newsAPI/checkDBNewsComments</div></td></tr><tr><td style="font-weight:bold;vertical-align:top;">QUERY_STRING</td><td style="vertical-align:top;">:</td><td><div></div></td></tr><tr><td style="font-weight:bold;vertical-align:top;">REMOTE_ADDR</td><td style="vertical-align:top;">:</td><td><div>127.0.0.1</div></td></tr><tr><td style="font-weight:bold;vertical-align:top;">REMOTE_PORT</td><td style="vertical-align:top;">:</td><td><div>59122</div></td></tr><tr><td style="font-weight:bold;vertical-align:top;">REQUEST_METHOD</td><td style="vertical-align:top;">:</td><td><div>GET</div></td></tr><tr><td style="font-weight:bold;vertical-align:top;">SCRIPT_NAME</td><td style="vertical-align:top;">:</td><td><div></div></td></tr><tr><td style="font-weight:bold;vertical-align:top;">SERVER_NAME</td><td style="vertical-align:top;">:</td><td><div>maclogair.local</div></td></tr><tr><td style="font-weight:bold;vertical-align:top;">SERVER_PORT</td><td style="vertical-align:top;">:</td><td><div>8088</div></td></tr><tr><td style="font-weight:bold;vertical-align:top;">SERVER_PROTOCOL</td><td style="vertical-align:top;">:</td><td><div>HTTP/1.1</div></td></tr><tr><td style="font-weight:bold;vertical-align:top;">SERVER_SOFTWARE</td><td style="vertical-align:top;">:</td><td><div>Rocket 1.2.6</div></td></tr><tr><td style="font-weight:bold;vertical-align:top;">app_folders</td><td style="vertical-align:top;">:</td><td><div>set([&#x27;/Users/logyuan/Documents/web2py/applications/fbBrt/&#x27;, &#x27;/Users/logyuan/Documents/web2py/applications/admin/&#x27;, &#x27;/Users/logyuan/Documents/web2py/applications/welcome/&#x27;])</div></td></tr><tr><td style="font-weight:bold;vertical-align:top;">applications_parent</td><td style="vertical-align:top;">:</td><td><div>/Users/logyuan/Documents/web2py</div></td></tr><tr><td style="font-weight:bold;vertical-align:top;">cmd_args</td><td style="vertical-align:top;">:</td><td><div><table></table></div></td></tr><tr><td style="font-weight:bold;vertical-align:top;">cmd_options</td><td style="vertical-align:top;">:</td><td><div>&lt;Values at 0x10e1944d0: {&#x27;verbose&#x27;: False, &#x27;ip&#x27;: &#x27;127.0.0.1&#x27;, &#x27;debuglevel&#x27;: 30, &#x27;with_scheduler&#x27;: False, &#x27;ips&#x27;: [&#x27;192.168.2.1&#x27;, &#x27;fe80::60c:ceff:fee3:df4a%en0&#x27;, &#x27;10.37.129.2&#x27;, &#x27;fe80::40c:ceff:fe3e:b700%bridge0&#x27;, &#x27;10.211.55.2&#x27;, &#x27;192.168.1.5&#x27;], &#x27;shutdown_timeout&#x27;: 5, &#x27;taskbar&#x27;: False, &#x27;with_coverage&#x27;: False, &#x27;port&#x27;: 8000, &#x27;maxthreads&#x27;: None, &#x27;softcron&#x27;: False, &#x27;server_name&#x27;: &#x27;maclogair.local&#x27;, &#x27;bpython&#x27;: False, &#x27;nogui&#x27;: False, &#x27;pid_filename&#x27;: &#x27;httpserver.pid&#x27;, &#x27;extcron&#x27;: False, &#x27;runcron&#x27;: False, &#x27;run_system_tests&#x27;: False, &#x27;test&#x27;: None, &#x27;folder&#x27;: &#x27;/Users/logyuan/Documents/web2py&#x27;, &#x27;config&#x27;: &#x27;&#x27;, &#x27;minthreads&#x27;: None, &#x27;shell&#x27;: None, &#x27;run&#x27;: &#x27;&#x27;, &#x27;log_filename&#x27;: &#x27;httpserver.log&#x27;, &#x27;profiler_dir&#x27;: None, &#x27;args&#x27;: [&#x27;&#x27;], &#x27;socket_timeout&#x27;: 5, &#x27;ssl_ca_certificate&#x27;: None, &#x27;scheduler&#x27;: None, &#x27;interfaces&#x27;: None, &#x27;ssl_private_key&#x27;: &#x27;&#x27;, &#x27;scheduler_groups&#x27;: None, &#x27;password&#x27;: &#x27;&lt;ask&gt;&#x27;, &#x27;request_queue_size&#x27;: 5, &#x27;ssl_certificate&#x27;: &#x27;&#x27;, &#x27;cronjob&#x27;: False, &#x27;numthreads&#x27;: None, &#x27;quiet&#x27;: False, &#x27;import_models&#x27;: False, &#x27;timeout&#x27;: 10, &#x27;plain&#x27;: False, &#x27;nobanner&#x27;: False}&gt;</div></td></tr><tr><td style="font-weight:bold;vertical-align:top;">db_sessions</td><td style="vertical-align:top;">:</td><td><div>set([])</div></td></tr><tr><td style="font-weight:bold;vertical-align:top;">debugging</td><td style="vertical-align:top;">:</td><td><div>True</div></td></tr><tr><td style="font-weight:bold;vertical-align:top;">gluon_parent</td><td style="vertical-align:top;">:</td><td><div>/Users/logyuan/Documents/web2py</div></td></tr><tr><td style="font-weight:bold;vertical-align:top;">http_accept</td><td style="vertical-align:top;">:</td><td><div>text/html,application/xhtml+xml,application/xml;q=0.9,*/*;q=0.8</div></td></tr><tr><td style="font-weight:bold;vertical-align:top;">http_accept_encoding</td><td style="vertical-align:top;">:</td><td><div>gzip, deflate</div></td></tr><tr><td style="font-weight:bold;vertical-align:top;">http_accept_language</td><td style="vertical-align:top;">:</td><td><div>en-us</div></td></tr><tr><td style="font-weight:bold;vertical-align:top;">http_connection</td><td style="vertical-align:top;">:</td><td><div>keep-alive</div></td></tr><tr><td style="font-weight:bold;vertical-align:top;">http_cookie</td><td style="vertical-align:top;">:</td><td><div>session_id_admin=127.0.0.1-9af2c555-3449-4e45-8085-df8d161e40ce; session_id_fbbrt=127.0.0.1-26163b22-906c-4f6c-a8b7-853e6d53d1d1; session_id_welcome=127.0.0.1-6e85adf7-33b1-401a-920c-1b9fb8d16431</div></td></tr><tr><td style="font-weight:bold;vertical-align:top;">http_host</td><td style="vertical-align:top;">:</td><td><div>localhost:8088</div></td></tr><tr><td style="font-weight:bold;vertical-align:top;">http_user_agent</td><td style="vertical-align:top;">:</td><td><div>Mozilla/5.0 (Macintosh; Intel Mac OS X 10_10_2) AppleWebKit/600.3.18 (KHTML, like Gecko) Version/8.0.3 Safari/600.3.18</div></td></tr><tr><td style="font-weight:bold;vertical-align:top;">is_jython</td><td style="vertical-align:top;">:</td><td><div>False</div></td></tr><tr><td style="font-weight:bold;vertical-align:top;">is_pypy</td><td style="vertical-align:top;">:</td><td><div>False</div></td></tr><tr><td style="font-weight:bold;vertical-align:top;">is_source</td><td style="vertical-align:top;">:</td><td><div>True</div></td></tr><tr><td style="font-weight:bold;vertical-align:top;">local_hosts</td><td style="vertical-align:top;">:</td><td><div><table><tr><td><div>192.168.2.1</div></td></tr><tr><td><div>fe80::60c:ceff:fee3:df4a%en0</div></td></tr><tr><td><div>10.37.129.2</div></td></tr><tr><td><div>::ffff:127.0.0.1</div></td></tr><tr><td><div>::1</div></td></tr><tr><td><div>10.211.55.2</div></td></tr><tr><td><div>192.168.1.5</div></td></tr><tr><td><div>fe80::40c:ceff:fe3e:b700%bridge0</div></td></tr><tr><td><div>maclogair.local</div></td></tr><tr><td><div>127.0.0.1</div></td></tr></table></div></td></tr><tr><td style="font-weight:bold;vertical-align:top;">path_info</td><td style="vertical-align:top;">:</td><td><div>/fbBrt/newsAPI/checkDBNewsComments</div></td></tr><tr><td style="font-weight:bold;vertical-align:top;">query_string</td><td style="vertical-align:top;">:</td><td><div></div></td></tr><tr><td style="font-weight:bold;vertical-align:top;">remote_addr</td><td style="vertical-align:top;">:</td><td><div>127.0.0.1</div></td></tr><tr><td style="font-weight:bold;vertical-align:top;">remote_port</td><td style="vertical-align:top;">:</td><td><div>59122</div></td></tr><tr><td style="font-weight:bold;vertical-align:top;">request_method</td><td style="vertical-align:top;">:</td><td><div>GET</div></td></tr><tr><td style="font-weight:bold;vertical-align:top;">request_uri</td><td style="vertical-align:top;">:</td><td><div>/fbBrt/newsAPI/checkDBNewsComments</div></td></tr><tr><td style="font-weight:bold;vertical-align:top;">script_name</td><td style="vertical-align:top;">:</td><td><div></div></td></tr><tr><td style="font-weight:bold;vertical-align:top;">server_name</td><td style="vertical-align:top;">:</td><td><div>maclogair.local</div></td></tr><tr><td style="font-weight:bold;vertical-align:top;">server_port</td><td style="vertical-align:top;">:</td><td><div>8088</div></td></tr><tr><td style="font-weight:bold;vertical-align:top;">server_protocol</td><td style="vertical-align:top;">:</td><td><div>HTTP/1.1</div></td></tr><tr><td style="font-weight:bold;vertical-align:top;">server_software</td><td style="vertical-align:top;">:</td><td><div>Rocket 1.2.6</div></td></tr><tr><td style="font-weight:bold;vertical-align:top;">web2py_path</td><td style="vertical-align:top;">:</td><td><div>/Users/logyuan/Documents/web2py</div></td></tr><tr><td style="font-weight:bold;vertical-align:top;">web2py_version</td><td style="vertical-align:top;">:</td><td><div>2.9.5-stable+timestamp.2014.03.20.22.57.13</div></td></tr><tr><td style="font-weight:bold;vertical-align:top;">wsgi.errors</td><td style="vertical-align:top;">:</td><td><div>&lt;open file &#x27;&lt;stderr&gt;&#x27;, mode &#x27;w&#x27; at 0x10cdab1e0&gt;</div></td></tr><tr><td style="font-weight:bold;vertical-align:top;">wsgi.file_wrapper</td><td style="vertical-align:top;">:</td><td><div>&lt;class wsgiref.util.FileWrapper at 0x10e11d870&gt;</div></td></tr><tr><td style="font-weight:bold;vertical-align:top;">wsgi.input</td><td style="vertical-align:top;">:</td><td><div>&lt;socket._fileobject object at 0x15efa8150&gt;</div></td></tr><tr><td style="font-weight:bold;vertical-align:top;">wsgi.multiprocess</td><td style="vertical-align:top;">:</td><td><div>False</div></td></tr><tr><td style="font-weight:bold;vertical-align:top;">wsgi.multithread</td><td style="vertical-align:top;">:</td><td><div>True</div></td></tr><tr><td style="font-weight:bold;vertical-align:top;">wsgi.run_once</td><td style="vertical-align:top;">:</td><td><div>False</div></td></tr><tr><td style="font-weight:bold;vertical-align:top;">wsgi.url_scheme</td><td style="vertical-align:top;">:</td><td><div>http</div></td></tr><tr><td style="font-weight:bold;vertical-align:top;">wsgi.version</td><td style="vertical-align:top;">:</td><td><div><table><tr><td><div>1</div></td></tr><tr><td><div>0</div></td></tr></table></div></td></tr><tr><td style="font-weight:bold;vertical-align:top;">wsgi_errors</td><td style="vertical-align:top;">:</td><td><div>&lt;open file &#x27;&lt;stderr&gt;&#x27;, mode &#x27;w&#x27; at 0x10cdab1e0&gt;</div></td></tr><tr><td style="font-weight:bold;vertical-align:top;">wsgi_file_wrapper</td><td style="vertical-align:top;">:</td><td><div>&lt;class wsgiref.util.FileWrapper at 0x10e11d870&gt;</div></td></tr><tr><td style="font-weight:bold;vertical-align:top;">wsgi_input</td><td style="vertical-align:top;">:</td><td><div>&lt;socket._fileobject object at 0x15efa8150&gt;</div></td></tr><tr><td style="font-weight:bold;vertical-align:top;">wsgi_multiprocess</td><td style="vertical-align:top;">:</td><td><div>False</div></td></tr><tr><td style="font-weight:bold;vertical-align:top;">wsgi_multithread</td><td style="vertical-align:top;">:</td><td><div>True</div></td></tr><tr><td style="font-weight:bold;vertical-align:top;">wsgi_run_once</td><td style="vertical-align:top;">:</td><td><div>False</div></td></tr><tr><td style="font-weight:bold;vertical-align:top;">wsgi_url_scheme</td><td style="vertical-align:top;">:</td><td><div>http</div></td></tr><tr><td style="font-weight:bold;vertical-align:top;">wsgi_version</td><td style="vertical-align:top;">:</td><td><div><table><tr><td><div>1</div></td></tr><tr><td><div>0</div></td></tr></table></div></td></tr></table></div></td></tr><tr><td style="font-weight:bold;vertical-align:top;">extension</td><td style="vertical-align:top;">:</td><td><div>html</div></td></tr><tr><td style="font-weight:bold;vertical-align:top;">folder</td><td style="vertical-align:top;">:</td><td><div>/Users/logyuan/Documents/web2py/applications/fbBrt/</div></td></tr><tr><td style="font-weight:bold;vertical-align:top;">function</td><td style="vertical-align:top;">:</td><td><div>checkDBNewsComments</div></td></tr><tr><td style="font-weight:bold;vertical-align:top;">global_settings</td><td style="vertical-align:top;">:</td><td><div><table><tr><td style="font-weight:bold;vertical-align:top;">app_folders</td><td style="vertical-align:top;">:</td><td><div>set([&#x27;/Users/logyuan/Documents/web2py/applications/fbBrt/&#x27;, &#x27;/Users/logyuan/Documents/web2py/applications/admin/&#x27;, &#x27;/Users/logyuan/Documents/web2py/applications/welcome/&#x27;])</div></td></tr><tr><td style="font-weight:bold;vertical-align:top;">applications_parent</td><td style="vertical-align:top;">:</td><td><div>/Users/logyuan/Documents/web2py</div></td></tr><tr><td style="font-weight:bold;vertical-align:top;">cmd_args</td><td style="vertical-align:top;">:</td><td><div><table></table></div></td></tr><tr><td style="font-weight:bold;vertical-align:top;">cmd_options</td><td style="vertical-align:top;">:</td><td><div>&lt;Values at 0x10e1944d0: {&#x27;verbose&#x27;: False, &#x27;ip&#x27;: &#x27;127.0.0.1&#x27;, &#x27;debuglevel&#x27;: 30, &#x27;with_scheduler&#x27;: False, &#x27;ips&#x27;: [&#x27;192.168.2.1&#x27;, &#x27;fe80::60c:ceff:fee3:df4a%en0&#x27;, &#x27;10.37.129.2&#x27;, &#x27;fe80::40c:ceff:fe3e:b700%bridge0&#x27;, &#x27;10.211.55.2&#x27;, &#x27;192.168.1.5&#x27;], &#x27;shutdown_timeout&#x27;: 5, &#x27;taskbar&#x27;: False, &#x27;with_coverage&#x27;: False, &#x27;port&#x27;: 8000, &#x27;maxthreads&#x27;: None, &#x27;softcron&#x27;: False, &#x27;server_name&#x27;: &#x27;maclogair.local&#x27;, &#x27;bpython&#x27;: False, &#x27;nogui&#x27;: False, &#x27;pid_filename&#x27;: &#x27;httpserver.pid&#x27;, &#x27;extcron&#x27;: False, &#x27;runcron&#x27;: False, &#x27;run_system_tests&#x27;: False, &#x27;test&#x27;: None, &#x27;folder&#x27;: &#x27;/Users/logyuan/Documents/web2py&#x27;, &#x27;config&#x27;: &#x27;&#x27;, &#x27;minthreads&#x27;: None, &#x27;shell&#x27;: None, &#x27;run&#x27;: &#x27;&#x27;, &#x27;log_filename&#x27;: &#x27;httpserver.log&#x27;, &#x27;profiler_dir&#x27;: None, &#x27;args&#x27;: [&#x27;&#x27;], &#x27;socket_timeout&#x27;: 5, &#x27;ssl_ca_certificate&#x27;: None, &#x27;scheduler&#x27;: None, &#x27;interfaces&#x27;: None, &#x27;ssl_private_key&#x27;: &#x27;&#x27;, &#x27;scheduler_groups&#x27;: None, &#x27;password&#x27;: &#x27;&lt;ask&gt;&#x27;, &#x27;request_queue_size&#x27;: 5, &#x27;ssl_certificate&#x27;: &#x27;&#x27;, &#x27;cronjob&#x27;: False, &#x27;numthreads&#x27;: None, &#x27;quiet&#x27;: False, &#x27;import_models&#x27;: False, &#x27;timeout&#x27;: 10, &#x27;plain&#x27;: False, &#x27;nobanner&#x27;: False}&gt;</div></td></tr><tr><td style="font-weight:bold;vertical-align:top;">db_sessions</td><td style="vertical-align:top;">:</td><td><div>set([])</div></td></tr><tr><td style="font-weight:bold;vertical-align:top;">debugging</td><td style="vertical-align:top;">:</td><td><div>True</div></td></tr><tr><td style="font-weight:bold;vertical-align:top;">gluon_parent</td><td style="vertical-align:top;">:</td><td><div>/Users/logyuan/Documents/web2py</div></td></tr><tr><td style="font-weight:bold;vertical-align:top;">is_jython</td><td style="vertical-align:top;">:</td><td><div>False</div></td></tr><tr><td style="font-weight:bold;vertical-align:top;">is_pypy</td><td style="vertical-align:top;">:</td><td><div>False</div></td></tr><tr><td style="font-weight:bold;vertical-align:top;">is_source</td><td style="vertical-align:top;">:</td><td><div>True</div></td></tr><tr><td style="font-weight:bold;vertical-align:top;">local_hosts</td><td style="vertical-align:top;">:</td><td><div><table><tr><td><div>192.168.2.1</div></td></tr><tr><td><div>fe80::60c:ceff:fee3:df4a%en0</div></td></tr><tr><td><div>10.37.129.2</div></td></tr><tr><td><div>::ffff:127.0.0.1</div></td></tr><tr><td><div>::1</div></td></tr><tr><td><div>10.211.55.2</div></td></tr><tr><td><div>192.168.1.5</div></td></tr><tr><td><div>fe80::40c:ceff:fe3e:b700%bridge0</div></td></tr><tr><td><div>maclogair.local</div></td></tr><tr><td><div>127.0.0.1</div></td></tr></table></div></td></tr><tr><td style="font-weight:bold;vertical-align:top;">web2py_version</td><td style="vertical-align:top;">:</td><td><div>2.9.5-stable+timestamp.2014.03.20.22.57.13</div></td></tr></table></div></td></tr><tr><td style="font-weight:bold;vertical-align:top;">is_https</td><td style="vertical-align:top;">:</td><td><div>False</div></td></tr><tr><td style="font-weight:bold;vertical-align:top;">is_local</td><td style="vertical-align:top;">:</td><td><div>True</div></td></tr><tr><td style="font-weight:bold;vertical-align:top;">is_restful</td><td style="vertical-align:top;">:</td><td><div>False</div></td></tr><tr><td style="font-weight:bold;vertical-align:top;">now</td><td style="vertical-align:top;">:</td><td><div>datetime.datetime(2015, 2, 27, 10, 2, 42, 787220)</div></td></tr><tr><td style="font-weight:bold;vertical-align:top;">raw_args</td><td style="vertical-align:top;">:</td><td><div></div></td></tr><tr><td style="font-weight:bold;vertical-align:top;">raw_extension</td><td style="vertical-align:top;">:</td><td><div>None</div></td></tr><tr><td style="font-weight:bold;vertical-align:top;">url</td><td style="vertical-align:top;">:</td><td><div>/fbBrt/newsAPI/checkDBNewsComments</div></td></tr><tr><td style="font-weight:bold;vertical-align:top;">utcnow</td><td style="vertical-align:top;">:</td><td><div>datetime.datetime(2015, 2, 27, 2, 2, 42, 787237)</div></td></tr><tr><td style="font-weight:bold;vertical-align:top;">uuid</td><td style="vertical-align:top;">:</td><td><div>fbBrt/127.0.0.1.2015-02-27.10-02-42.d3e1dcb9-8d05-4a1f-8fec-8a63e23622da</div></td></tr><tr><td style="font-weight:bold;vertical-align:top;">wsgi</td><td style="vertical-align:top;">:</td><td><div>&lt;gluon.main.LazyWSGI object at 0x167a6a850&gt;</div></td></tr></table></div>'
tRp66
sS'frames'
p67
(lp68
(dp69
S'file'
p70
S'/Users/logyuan/Documents/web2py/gluon/restricted.py'
p71
sS'dump'
p72
(dp73
S'environment'
p74
S"{'A': <class 'gluon.html.A'>, 'ANY_OF': <class 'gluon.validators.ANY_OF'>, 'Auth': <class 'gluon.tools.Auth'>, 'B': <class 'gluon.html.B'>, 'BEAUTIFY': <class 'gluon.html.BEAUTIFY'>, 'BODY': <class 'gluon.html.BODY'>, 'BR': <class 'gluon.html.BR'>, 'BUTTON': <class 'gluon.html.BUTTON'>, 'BestComments': <function BestComments>, 'CAT': <class 'gluon.html.CAT'>, ...}"
p75
sS'ccode'
p76
S'<code object <module> at 0x15d69c030, file "/Use...plications/fbBrt/controllers/newsAPI.py", line 3>'
p77
ssS'lnum'
p78
I220
sS'lines'
p79
(dp80
I224
S'        # do not encapsulate (obfuscate) the original RestrictedError'
p81
sI215
S'    try:'
p82
sI216
S'        if isinstance(code, types.CodeType):'
p83
sI217
S'            ccode = code'
p84
sI218
S'        else:'
p85
sI219
S'            ccode = compile2(code, layer)'
p86
sI220
S'        exec ccode in environment'
p87
sI221
S'    except HTTP:'
p88
sI222
S'        raise'
p89
sI223
S'    except RestrictedError:'
p90
ssS'call'
p91
S"(code='# coding: utf8\\n# try something like\\nimport urlli...onse._vars=response._caller(checkDBNewsComments)\\n', environment={'A': <class 'gluon.html.A'>, 'ANY_OF': <class 'gluon.validators.ANY_OF'>, 'Auth': <class 'gluon.tools.Auth'>, 'B': <class 'gluon.html.B'>, 'BEAUTIFY': <class 'gluon.html.BEAUTIFY'>, 'BODY': <class 'gluon.html.BODY'>, 'BR': <class 'gluon.html.BR'>, 'BUTTON': <class 'gluon.html.BUTTON'>, 'BestComments': <function BestComments>, 'CAT': <class 'gluon.html.CAT'>, ...}, layer='/Users/logyuan/Documents/web2py/applications/fbBrt/controllers/newsAPI.py')"
p92
sS'func'
p93
S'restricted'
p94
sa(dp95
g70
S'/Users/logyuan/Documents/web2py/applications/fbBrt/controllers/newsAPI.py'
p96
sg72
(dp97
sg78
I521
sg79
(dp98
I512
S'    return dict(message="OK")'
p99
sI513
S'    #return len(rows)'
p100
sI514
S'    #return json.dumps(female_wordclouds_nr)'
p101
sI515
S''
sI516
S''
sI517
S''
sI518
S'def delay():'
p102
sI519
S'    time.sleep(1.5)'
p103
sI510
S'    f.close()'
p104
sI511
S''
ssg91
S'()'
p105
sg93
S'<module>'
p106
sa(dp107
g70
S'/Users/logyuan/Documents/web2py/gluon/globals.py'
p108
sg72
(dp109
S'self'
p110
S'undefined'
p111
sS'f'
S'<function checkDBNewsComments>'
p112
ssg78
I385
sg79
(dp113
I384
S'        self._vars = None'
p114
sI385
S'        self._caller = lambda f: f()'
p115
sI386
S'        self._view_environment = None'
p116
sI387
S'        self._custom_commit = None'
p117
sI388
S'        self._custom_rollback = None'
p118
sI389
S''
sI380
S'        self.menu = []             # used by the default view layout'
p119
sI381
S'        self.files = []            # used by web2py_ajax.html'
p120
sI382
S'        self.generic_patterns = []  # patterns to allow generic views'
p121
sI383
S"        self.delimiters = ('{{', '}}')"
p122
ssg91
S'(f=<function checkDBNewsComments>)'
p123
sg93
S'<lambda>'
p124
sa(dp125
g70
S'/Users/logyuan/Documents/web2py/gluon/tools.py'
p126
sg72
(dp127
S'action'
p128
S'<function checkDBNewsComments>'
p129
sS'a'
S'()'
p130
sS'b'
S'{}'
p131
ssg78
I3287
sg79
(dp132
I3282
S'                    flag = condition'
p133
sI3283
S'                if not flag:'
p134
sI3284
S'                    current.session.flash = self.messages.access_denied'
p135
sI3285
S'                    return call_or_redirect('
p136
sI3286
S'                        self.settings.on_failed_authorization)'
p137
sI3287
S'                return action(*a, **b)'
p138
sI3288
S'            f.__doc__ = action.__doc__'
p139
sI3289
S'            f.__name__ = action.__name__'
p140
sI3290
S'            f.__dict__.update(action.__dict__)'
p141
sI3291
S'            return f'
p142
ssg91
S'(*a=(), **b={})'
p143
sg93
S'f'
sa(dp144
g70
S'/Users/logyuan/Documents/web2py/applications/fbBrt/controllers/newsAPI.py'
p145
sg72
(dp146
S'news_source'
p147
S"'\\xe8\\x98\\x8b\\xe6\\x9e\\x9c\\xe6\\x97\\xa5\\xe5\\xa0\\xb1'"
p148
sS'href'
p149
S"'http://www.appledaily.com.tw/appledaily/article/headline/20141225/36288175/'"
p150
sS'global getNewsComments'
p151
S'<function getNewsComments>'
p152
sS'ids'
p153
S"'617545371705430'"
p154
sS'from_team'
p155
S"'BRT'"
p156
ssg78
I271
sg79
(dp157
I266
S'        href = row["href"]'
p158
sI267
S'        if ids != None:'
p159
sI268
S'            #ids = "http://" + urllib.quote(ids.split("http://")[1])'
p160
sI269
S'            from_team = row["from_team"]'
p161
sI270
S'            news_source = row["source"]'
p162
sI271
S'            getNewsComments(ids, from_team, news_source, href)'
p163
sI272
S''
sI273
S'    return "Ok"'
p164
sI274
S''
sI275
S'def BestComments():'
p165
ssg91
S'()'
p166
sg93
S'checkDBNewsComments'
p167
sa(dp168
g70
S'/Users/logyuan/Documents/web2py/gluon/tools.py'
p169
sg72
(dp170
S'action'
p171
S'<function getNewsComments>'
p172
sS'a'
S"('617545371705430', 'BRT', '\\xe8\\x98\\x8b\\xe6\\x9e\\x9c\\xe6\\x97\\xa5\\xe5\\xa0\\xb1', 'http://www.appledaily.com.tw/appledaily/article/headline/20141225/36288175/')"
p173
sS'b'
g131
ssg78
I3287
sg79
(dp174
I3282
S'                    flag = condition'
p175
sI3283
S'                if not flag:'
p176
sI3284
S'                    current.session.flash = self.messages.access_denied'
p177
sI3285
S'                    return call_or_redirect('
p178
sI3286
S'                        self.settings.on_failed_authorization)'
p179
sI3287
S'                return action(*a, **b)'
p180
sI3288
S'            f.__doc__ = action.__doc__'
p181
sI3289
S'            f.__name__ = action.__name__'
p182
sI3290
S'            f.__dict__.update(action.__dict__)'
p183
sI3291
S'            return f'
p184
ssg91
S"(*a=('617545371705430', 'BRT', '\\xe8\\x98\\x8b\\xe6\\x9e\\x9c\\xe6\\x97\\xa5\\xe5\\xa0\\xb1', 'http://www.appledaily.com.tw/appledaily/article/headline/20141225/36288175/'), **b={})"
p185
sg93
S'f'
sa(dp186
g70
S'/Users/logyuan/Documents/web2py/applications/fbBrt/models/graph.py'
p187
sg72
(dp188
S'fb_obj'
p189
g111
sS'graph'
p190
S'<facebook.GraphAPI object>'
p191
sS'args'
p192
g111
sS'ids'
p193
S"'617545371705430'"
p194
sS'qtext'
p195
S"'id,from,message,comments.limit(1000),created_time,like_count,can_remove,likes.limit(1000)'"
p196
sS'graph.request'
p197
S'<bound method GraphAPI.request of <facebook.GraphAPI object>>'
p198
ssg78
I1543
sg79
(dp199
I1538
S'        comments_arr = []'
p200
sI1539
S'        data = []'
p201
sI1540
S'        data_all = []'
p202
sI1541
S'        next_p = None'
p203
sI1542
S'        after = ""'
p204
sI1543
S"        fb_obj = graph.request(ids + '/comments', args={'fields': qtext, 'limit': 1000})"
p205
sI1544
S'        news_href = href'
p206
sI1545
S'        delay()'
p207
sI1546
S'        data = fb_obj["data"]  #if "comments" in fb_obj[ids] else fb_obj[ids]["data"]'
p208
sI1547
S'        #if len(data) != 0:'
p209
ssg91
S"(ids='617545371705430', from_team='BRT', news_source='\\xe8\\x98\\x8b\\xe6\\x9e\\x9c\\xe6\\x97\\xa5\\xe5\\xa0\\xb1', href='http://www.appledaily.com.tw/appledaily/article/headline/20141225/36288175/')"
p210
sg93
S'getNewsComments'
p211
sa(dp212
g70
S'/usr/local/lib/python2.7/site-packages/facebook.py'
p213
sg72
(dp214
S'response'
p215
S"{'error': {'code': 2, 'is_transient': True, 'message': 'An unexpected error has occurred. Please retry your request later.', 'type': 'OAuthException'}}"
p216
sS'global GraphAPIError'
p217
S"<class 'facebook.GraphAPIError'>"
p218
ssg78
I298
sg79
(dp219
I293
S'        try:'
p220
sI294
S'            file = urllib2.urlopen("https://graph.facebook.com/" + path + "?" +'
p221
sI295
S'                    urllib.urlencode(args), post_data, timeout=self.timeout)'
p222
sI296
S'        except urllib2.HTTPError, e:'
p223
sI297
S'            response = _parse_json(e.read())'
p224
sI298
S'            raise GraphAPIError(response)'
p225
sI299
S'        except TypeError:'
p226
sI300
S'            # Timeout support for Python <2.6'
p227
sI301
S'            if self.timeout:'
p228
sI302
S'                socket.setdefaulttimeout(self.timeout)'
p229
ssg91
S"(self=<facebook.GraphAPI object>, path='617545371705430/comments', args={'access_token': 'CAAPXPqLzG54BAC5JGrXg7ik3IDIwZABTt1olyoPmMKgGRIt...w0XJyu5oVjDJOk5gvGIZBeOZCtaGL20rlQWJg5eUSvZCR1a0H', 'fields': 'id,from,message,comments.limit(1000),created_time,like_count,can_remove,likes.limit(1000)', 'limit': 1000}, post_args=None)"
p230
sg93
g64
sasS'pyver'
p231
S'Python 2.7.7: /usr/local/opt/python/bin/python2.7 (prefix: /usr/local/Cellar/python/2.7.7_1/Frameworks/Python.framework/Versions/2.7)'
p232
sS'session'
p233
g65
(S's\x9f\x0b\x00\x00<div><table><tr><td style="font-weight:bold;vertical-align:top;">auth</td><td style="vertical-align:top;">:</td><td><div><table><tr><td style="font-weight:bold;vertical-align:top;">expiration</td><td style="vertical-align:top;">:</td><td><div>3600</div></td></tr><tr><td style="font-weight:bold;vertical-align:top;">hmac_key</td><td style="vertical-align:top;">:</td><td><div>c1a615fd-6823-44f8-bc48-ffa26bf52bee</div></td></tr><tr><td style="font-weight:bold;vertical-align:top;">last_visit</td><td style="vertical-align:top;">:</td><td><div>datetime.datetime(2015, 2, 27, 10, 2, 37, 304955)</div></td></tr><tr><td style="font-weight:bold;vertical-align:top;">remember</td><td style="vertical-align:top;">:</td><td><div>False</div></td></tr><tr><td style="font-weight:bold;vertical-align:top;">user</td><td style="vertical-align:top;">:</td><td><div><table><tr><td style="font-weight:bold;vertical-align:top;">first_name</td><td style="vertical-align:top;">:</td><td><div>Chih-Yuan</div></td></tr><tr><td style="font-weight:bold;vertical-align:top;">id</td><td style="vertical-align:top;">:</td><td><div>5L</div></td></tr><tr><td style="font-weight:bold;vertical-align:top;">last_name</td><td style="vertical-align:top;">:</td><td><div>Chen</div></td></tr><tr><td style="font-weight:bold;vertical-align:top;">registration_id</td><td style="vertical-align:top;">:</td><td><div>10152723143866527</div></td></tr><tr><td style="font-weight:bold;vertical-align:top;">registration_key</td><td style="vertical-align:top;">:</td><td><div></div></td></tr><tr><td style="font-weight:bold;vertical-align:top;">username</td><td style="vertical-align:top;">:</td><td><div>10152723143866527</div></td></tr></table></div></td></tr><tr><td style="font-weight:bold;vertical-align:top;">user_groups</td><td style="vertical-align:top;">:</td><td><div><table><tr><td style="font-weight:bold;vertical-align:top;">5</td><td style="vertical-align:top;">:</td><td><div>user_5</div></td></tr></table></div></td></tr></table></div></td></tr><tr><td style="font-weight:bold;vertical-align:top;">flash</td><td style="vertical-align:top;">:</td><td><div>None</div></td></tr><tr><td style="font-weight:bold;vertical-align:top;">redirect_uri</td><td style="vertical-align:top;">:</td><td><div>http://localhost:8088/fbBrt/default/user/login</div></td></tr><tr><td style="font-weight:bold;vertical-align:top;">token</td><td style="vertical-align:top;">:</td><td><div><table><tr><td style="font-weight:bold;vertical-align:top;">access_token</td><td style="vertical-align:top;">:</td><td><div>CAAPXPqLzG54BAC5JGrXg7ik3IDIwZABTt1olyoPmMKgGRItNKZB1xEKsP2IFyNmelzp32GJ20ZAC7fVoMygzb9ZCm1V9uwJwLmzWh4uNWWBCkK4RseeXDL7EprbqgsalHh1irZAWoPqxBDW96Fysnkx7aalnFQqlXszWPtPw0XJyu5oVjDJOk5gvGIZBeOZCtaGL20rlQWJg5eUSvZCR1a0H</div></td></tr><tr><td style="font-weight:bold;vertical-align:top;">expires</td><td style="vertical-align:top;">:</td><td><div>1430102531.812775</div></td></tr></table></div></td></tr></table></div>'
tRp234
sS'etype'
p235
S"<class 'facebook.GraphAPIError'>"
p236
sS'date'
p237
S'Fri Feb 27 10:46:53 2015'
p238
sS'response'
p239
g65
(S's\xbc#\x00\x00<div><table><tr><td style="font-weight:bold;vertical-align:top;">body</td><td style="vertical-align:top;">:</td><td><div>&lt;cStringIO.StringO object at 0x159e48b90&gt;</div></td></tr><tr><td style="font-weight:bold;vertical-align:top;">cookies</td><td style="vertical-align:top;">:</td><td><div><table><tr><td style="font-weight:bold;vertical-align:top;">session_id_fbbrt</td><td style="vertical-align:top;">:</td><td><div>127.0.0.1-26163b22-906c-4f6c-a8b7-853e6d53d1d1<table><tr><td style="font-weight:bold;vertical-align:top;">comment</td><td style="vertical-align:top;">:</td><td><div></div></td></tr><tr><td style="font-weight:bold;vertical-align:top;">domain</td><td style="vertical-align:top;">:</td><td><div></div></td></tr><tr><td style="font-weight:bold;vertical-align:top;">expires</td><td style="vertical-align:top;">:</td><td><div></div></td></tr><tr><td style="font-weight:bold;vertical-align:top;">httponly</td><td style="vertical-align:top;">:</td><td><div></div></td></tr><tr><td style="font-weight:bold;vertical-align:top;">max-age</td><td style="vertical-align:top;">:</td><td><div></div></td></tr><tr><td style="font-weight:bold;vertical-align:top;">path</td><td style="vertical-align:top;">:</td><td><div>/</div></td></tr><tr><td style="font-weight:bold;vertical-align:top;">secure</td><td style="vertical-align:top;">:</td><td><div></div></td></tr><tr><td style="font-weight:bold;vertical-align:top;">version</td><td style="vertical-align:top;">:</td><td><div></div></td></tr></table></div></td></tr></table></div></td></tr><tr><td style="font-weight:bold;vertical-align:top;">delimiters</td><td style="vertical-align:top;">:</td><td><div><table><tr><td><div>{{</div></td></tr><tr><td><div>}}</div></td></tr></table></div></td></tr><tr><td style="font-weight:bold;vertical-align:top;">files</td><td style="vertical-align:top;">:</td><td><div><table></table></div></td></tr><tr><td style="font-weight:bold;vertical-align:top;">flash</td><td style="vertical-align:top;">:</td><td><div>Logged in</div></td></tr><tr><td style="font-weight:bold;vertical-align:top;">generic_patterns</td><td style="vertical-align:top;">:</td><td><div><table></table></div></td></tr><tr><td style="font-weight:bold;vertical-align:top;">google_analytics_id</td><td style="vertical-align:top;">:</td><td><div>None</div></td></tr><tr><td style="font-weight:bold;vertical-align:top;">headers</td><td style="vertical-align:top;">:</td><td><div><table><tr><td style="font-weight:bold;vertical-align:top;">X-Powered-By</td><td style="vertical-align:top;">:</td><td><div>web2py</div></td></tr></table></div></td></tr><tr><td style="font-weight:bold;vertical-align:top;">logo</td><td style="vertical-align:top;">:</td><td><div><a class="brand" href="http://www.web2py.com/"><b>web<span>2</span>py</b>&trade;&nbsp;</a></div></td></tr><tr><td style="font-weight:bold;vertical-align:top;">menu</td><td style="vertical-align:top;">:</td><td><div><table><tr><td><div><table><tr><td><div>BRT\xe6\x96\xb0\xe8\x81\x9e</div></td></tr><tr><td><div>False</div></td></tr><tr><td><div>/fbBrt/default/display_news</div></td></tr><tr><td><div><table><tr><td><div><table><tr><td><div>\xe5\x8d\xb3\xe6\x99\x82\xe6\x96\xb0\xe8\x81\x9e</div></td></tr><tr><td><div>False</div></td></tr><tr><td><div>/fbBrt/default/realtime_news</div></td></tr></table></div></td></tr><tr><td><div><table><tr><td><div>\xe6\x9c\xac\xe9\x80\xb1\xe6\x9c\x80\xe7\x86\xb1\xe9\x96\x80</div></td></tr><tr><td><div>False</div></td></tr><tr><td><div>/fbBrt/default/Hottest_news</div></td></tr></table></div></td></tr><tr><td><div><table><tr><td><div>\xe6\xad\xb7\xe5\x8f\xb2\xe6\x96\xb0\xe8\x81\x9e\xe6\x8e\x92\xe5\x90\x8d</div></td></tr><tr><td><div>False</div></td></tr><tr><td><div>/fbBrt/default/History_news</div></td></tr></table></div></td></tr></table></div></td></tr></table></div></td></tr><tr><td><div><table><tr><td><div>\xe7\xb6\xb2\xe5\x8f\x8b</div></td></tr><tr><td><div>False</div></td></tr><tr><td><div>/fbBrt/default/display_people</div></td></tr><tr><td><div><table><tr><td><div><table><tr><td><div>\xe6\x9c\x80\xe6\x96\xb0\xe5\x9b\x9e\xe8\xa6\x86</div></td></tr><tr><td><div>False</div></td></tr><tr><td><div>/fbBrt/default/addPeople</div></td></tr></table></div></td></tr></table></div></td></tr></table></div></td></tr><tr><td><div><table><tr><td><div>Page</div></td></tr><tr><td><div>False</div></td></tr><tr><td><div>/fbBrt/default/display_page</div></td></tr><tr><td><div><table><tr><td><div><table><tr><td><div>Page Count</div></td></tr><tr><td><div>False</div></td></tr><tr><td><div>/fbBrt/default/index</div></td></tr></table></div></td></tr><tr><td><div><table><tr><td><div>Add Page</div></td></tr><tr><td><div>False</div></td></tr><tr><td><div>/fbBrt/default/addPage</div></td></tr></table></div></td></tr></table></div></td></tr></table></div></td></tr><tr><td><div><table><tr><td><div>Post</div></td></tr><tr><td><div>False</div></td></tr><tr><td><div>/fbBrt/default/display_post</div></td></tr><tr><td><div><table><tr><td><div><table><tr><td><div>Add Post</div></td></tr><tr><td><div>False</div></td></tr><tr><td><div>/fbBrt/default/addpost</div></td></tr></table></div></td></tr></table></div></td></tr></table></div></td></tr></table></div></td></tr><tr><td style="font-weight:bold;vertical-align:top;">meta</td><td style="vertical-align:top;">:</td><td><div><table><tr><td style="font-weight:bold;vertical-align:top;">author</td><td style="vertical-align:top;">:</td><td><div>Your Name &lt;you@example.com&gt;</div></td></tr><tr><td style="font-weight:bold;vertical-align:top;">description</td><td style="vertical-align:top;">:</td><td><div>a cool new app</div></td></tr><tr><td style="font-weight:bold;vertical-align:top;">generator</td><td style="vertical-align:top;">:</td><td><div>Web2py Web Framework</div></td></tr><tr><td style="font-weight:bold;vertical-align:top;">keywords</td><td style="vertical-align:top;">:</td><td><div>web2py, python, framework</div></td></tr></table></div></td></tr><tr><td style="font-weight:bold;vertical-align:top;">models_to_run</td><td style="vertical-align:top;">:</td><td><div><table><tr><td><div>^\\w+\\.py$</div></td></tr><tr><td><div>^newsAPI/\\w+\\.py$</div></td></tr><tr><td><div>^newsAPI/checkDBNewsComments/\\w+\\.py$</div></td></tr></table></div></td></tr><tr><td style="font-weight:bold;vertical-align:top;">postprocessing</td><td style="vertical-align:top;">:</td><td><div><table></table></div></td></tr><tr><td style="font-weight:bold;vertical-align:top;">session_client</td><td style="vertical-align:top;">:</td><td><div>127.0.0.1</div></td></tr><tr><td style="font-weight:bold;vertical-align:top;">session_cookie_compression_level</td><td style="vertical-align:top;">:</td><td><div>None</div></td></tr><tr><td style="font-weight:bold;vertical-align:top;">session_cookie_expires</td><td style="vertical-align:top;">:</td><td><div>None</div></td></tr><tr><td style="font-weight:bold;vertical-align:top;">session_cookie_key</td><td style="vertical-align:top;">:</td><td><div>None</div></td></tr><tr><td style="font-weight:bold;vertical-align:top;">session_data_name</td><td style="vertical-align:top;">:</td><td><div>session_data_fbbrt</div></td></tr><tr><td style="font-weight:bold;vertical-align:top;">session_file</td><td style="vertical-align:top;">:</td><td><div>&lt;open file &#x27;/Users/logyuan/Documents/web2py/applications/fbBrt/sessions/127.0.0.1-26163b22-906c-4f6c-a8b7-853e6d53d1d1&#x27;, mode &#x27;rb+&#x27; at 0x15d52cc90&gt;</div></td></tr><tr><td style="font-weight:bold;vertical-align:top;">session_filename</td><td style="vertical-align:top;">:</td><td><div>/Users/logyuan/Documents/web2py/applications/fbBrt/sessions/127.0.0.1-26163b22-906c-4f6c-a8b7-853e6d53d1d1</div></td></tr><tr><td style="font-weight:bold;vertical-align:top;">session_hash</td><td style="vertical-align:top;">:</td><td><div>e884453d020ddd36668d3c69f25cc111</div></td></tr><tr><td style="font-weight:bold;vertical-align:top;">session_id</td><td style="vertical-align:top;">:</td><td><div>127.0.0.1-26163b22-906c-4f6c-a8b7-853e6d53d1d1</div></td></tr><tr><td style="font-weight:bold;vertical-align:top;">session_id_name</td><td style="vertical-align:top;">:</td><td><div>session_id_fbbrt</div></td></tr><tr><td style="font-weight:bold;vertical-align:top;">session_locked</td><td style="vertical-align:top;">:</td><td><div>True</div></td></tr><tr><td style="font-weight:bold;vertical-align:top;">session_masterapp</td><td style="vertical-align:top;">:</td><td><div>fbBrt</div></td></tr><tr><td style="font-weight:bold;vertical-align:top;">session_new</td><td style="vertical-align:top;">:</td><td><div>False</div></td></tr><tr><td style="font-weight:bold;vertical-align:top;">session_storage_type</td><td style="vertical-align:top;">:</td><td><div>file</div></td></tr><tr><td style="font-weight:bold;vertical-align:top;">status</td><td style="vertical-align:top;">:</td><td><div>200</div></td></tr><tr><td style="font-weight:bold;vertical-align:top;">subtitle</td><td style="vertical-align:top;">:</td><td><div>customize me!</div></td></tr><tr><td style="font-weight:bold;vertical-align:top;">title</td><td style="vertical-align:top;">:</td><td><div>Fbbrt</div></td></tr><tr><td style="font-weight:bold;vertical-align:top;">view</td><td style="vertical-align:top;">:</td><td><div>newsAPI/checkDBNewsComments.html</div></td></tr></table></div>'
tRp240
sS'locals'
p241
(dp242
S'e'
S'HTTPError()'
p243
sS'self'
p244
S'<facebook.GraphAPI object>'
p245
sg50
S"{'access_token': 'CAAPXPqLzG54BAC5JGrXg7ik3IDIwZABTt1olyoPmMKgGRIt...w0XJyu5oVjDJOk5gvGIZBeOZCtaGL20rlQWJg5eUSvZCR1a0H', 'fields': 'id,from,message,comments.limit(1000),created_time,like_count,can_remove,likes.limit(1000)', 'limit': 1000}"
p246
sS'post_data'
p247
S'None'
p248
sS'post_args'
p249
S'None'
p250
sS'path'
p251
S"'617545371705430/comments'"
p252
sg239
S"{'error': {'code': 2, 'is_transient': True, 'message': 'An unexpected error has occurred. Please retry your request later.', 'type': 'OAuthException'}}"
p253
sssS'traceback'
p254
S'Traceback (most recent call last):\n  File "/Users/logyuan/Documents/web2py/gluon/restricted.py", line 220, in restricted\n    exec ccode in environment\n  File "/Users/logyuan/Documents/web2py/applications/fbBrt/controllers/newsAPI.py", line 521, in <module>\n  File "/Users/logyuan/Documents/web2py/gluon/globals.py", line 385, in <lambda>\n    self._caller = lambda f: f()\n  File "/Users/logyuan/Documents/web2py/gluon/tools.py", line 3287, in f\n    return action(*a, **b)\n  File "/Users/logyuan/Documents/web2py/applications/fbBrt/controllers/newsAPI.py", line 271, in checkDBNewsComments\n    getNewsComments(ids, from_team, news_source, href)\n  File "/Users/logyuan/Documents/web2py/gluon/tools.py", line 3287, in f\n    return action(*a, **b)\n  File "/Users/logyuan/Documents/web2py/applications/fbBrt/models/graph.py", line 1543, in getNewsComments\n    fb_obj = graph.request(ids + \'/comments\', args={\'fields\': qtext, \'limit\': 1000})\n  File "/usr/local/lib/python2.7/site-packages/facebook.py", line 298, in request\n    raise GraphAPIError(response)\nGraphAPIError: An unexpected error has occurred. Please retry your request later.\n'
p255
s.