(dp1
S'output'
p2
S"<type 'exceptions.KeyError'> 'likes'"
p3
sS'layer'
p4
S'/Users/logyuan/Documents/web2py/applications/fbBrt/controllers/newsAPI.py'
p5
sS'code'
p6
S'# coding: utf8\n# try something like\nimport urllib\nimport json\nimport dateutil\nimport datetime\nimport string\nimport re\nimport itertools\nfrom collections import Counter\nfrom collections import OrderedDict\nfrom dateutil import parser\nfrom datetime import timedelta\nimport jieba\nimport jieba.analyse\nimport jieba.posseg as pseg\nfrom snownlp import SnowNLP\nfrom snownlp import sentiment\nfrom datetime import timedelta\nfrom operator import itemgetter\nimport codecs\nimport os\n\n#pos_train = os.path.join(request.folder,\'private\',\'dictionary\',\'pos.txt\')\n#nag_train = os.path.join(request.folder,\'private\',\'dictionary\',\'nag.txt\')\n#sentiment.train(pos_train, nag_train)\n\n#sentiment.save(os.path.join(request.folder,\'private\',\'sentiment.marshal\'))\n# sentiment.train(\'/usr/local/lib/python2.7/site-packages/snownlp/sentiment/blue.txt\', \'/usr/local/lib/python2.7/site-packages/snownlp/sentiment/green.txt\')\n#sentiment.save(\'/usr/local/lib/python2.7/site-packages/snownlp/sentiment/sentiment.marshal\')\n\n\ndictionary_path = os.path.join(request.folder,\'private\',\'dictionary\',\'dict.txt.big.txt\')\nuserdict_path = os.path.join(request.folder,\'private\',\'dictionary\',\'userdict.txt\')\nstopwords_path = os.path.join(request.folder,\'private\',\'dictionary\',\'stop_words.txt\')\nidf_path = os.path.join(request.folder,\'private\',\'dictionary\',\'idf.txt.big.txt\')\n\njieba.set_dictionary(dictionary_path)\njieba.load_userdict(userdict_path)\njieba.analyse.set_stop_words(stopwords_path)\njieba.analyse.set_idf_path(idf_path)\n\nstopwords_file = open(stopwords_path, \'r\')\nstopwords = [unicode(line.strip(\'\\n\'), "utf-8") for line in stopwords_file.readlines()]\n\n\n#jieba.initialize()\n\n\ndelEnStr = string.punctuation + \' \' + string.digits\ndelZhStr = u\'\xe3\x80\x8a\xe3\x80\x8b\xef\xbc\x88\xef\xbc\x89&%\xef\xbf\xa5#@\xef\xbc\x81{}\xe3\x80\x90\xe3\x80\x91\xe3\x80\x8c\xe3\x80\x8d\xe3\x80\x8e\xe3\x80\x8f\xef\xbc\x9f\xef\xbd\x9c\xef\xbc\x8c\xe3\x80\x81\xe3\x80\x82\xef\xbc\x9a\xef\xbc\x9b\xe4\xb8\xb6\xef\xbd\x9e\xe3\x80\x80\' + delEnStr.encode(\'utf8\')\n\n\ndef index():\n    started_time = datetime.datetime.now()\n    Brtnews24_url = "https://www.kimonolabs.com/api/47bg0pfm?apikey=22879e6cd7538eea6e95b90aa70afccc"\n    Brtnews7days_url = "https://www.kimonolabs.com/api/ajldjyxq?apikey=22879e6cd7538eea6e95b90aa70afccc"\n    Brtnews30days_url = "https://www.kimonolabs.com/api/5xnus1ws?apikey=22879e6cd7538eea6e95b90aa70afccc"\n    Brtnews1year_url = "https://www.kimonolabs.com/api/d1shcaww?apikey=22879e6cd7538eea6e95b90aa70afccc"\n    kimono_api(Brtnews1year_url, "BRT")\n    \n\n    mayor24_url = "https://www.kimonolabs.com/api/7br3eu62?apikey=22879e6cd7538eea6e95b90aa70afccc"\n    mayor7days_url = "https://www.kimonolabs.com/api/863lok12?apikey=22879e6cd7538eea6e95b90aa70afccc"\n    mayor30days_url = "https://www.kimonolabs.com/api/8h259vhq?apikey=22879e6cd7538eea6e95b90aa70afccc"\n    mayor1year_url = "https://www.kimonolabs.com/api/cs5dtbm0?apikey=22879e6cd7538eea6e95b90aa70afccc"\n    #kimono_api(mayor1year_url, "\xe6\x9e\x97\xe4\xbd\xb3\xe9\xbe\x8d")\n\n    today = datetime.datetime.today()\n    date = today - timedelta(days=3)\n    fromdate = datetime.datetime.strftime(date, "%Y/%m/%d")\n    todate = datetime.datetime.strftime(today, "%Y/%m/%d")\n    #checkDBNewsComments()\n    #checkDBNewsCommentsFromDate(fromdate)\n    ended_time = datetime.datetime.now()\n    fbdb.event_logs.insert(function=\'kimono_api\', started_time=started_time, ended_time=ended_time)\n    fbdb.commit()\n    started_time = datetime.datetime.now()\n    Socialcount()\n    ended_time = datetime.datetime.now()\n    fbdb.event_logs.insert(function=\'updateSocialcount\', started_time=started_time, ended_time=ended_time)\n    fbdb.commit()\n    started_time = datetime.datetime.now()\n    checkDBNewsComments()\n    ended_time = datetime.datetime.now()\n    fbdb.event_logs.insert(function=\'checkDBNewsComments\', started_time=started_time, ended_time=ended_time)\n    fbdb.commit()\n\n\n\n\n    return "OK"\n\ndef test():\n    return response.json(get_og_url(\'http://news.ltn.com.tw/news/opinion/breakingnews/1222089\'))\n\ndef test2():\n    getNewsComments(\'860009480727322\',\'\',\'\')\n\n\ndef commentsByKeywords():\n    key = \'%\xe5\xa5\xb3\xe6\x80\xa7%\'\n    rows = fbdb(fbdb.news.summary.like(key)).select()\n    newslist = []\n    for row in rows:\n        if row["fid"] != None:\n            newslist.append(row["fid"])\n    rows = fbdb(fbdb.news_comments.news_fid.belongs(newslist)).select()\n    comments = []\n    likes = []\n    for row in rows:\n        if row["like_count"] > 10:\n            news = fbdb(fbdb.news.fid == row["news_fid"]).select().first()\n            comments.append(\'news_title:\' + row["news_fid"] + news["title"] + \' like_count:\' + str(\n                row["like_count"]) + \' message: \' + row["message"])\n            likes.append(row["like_count"])\n    likes, comments = [list(x) for x in zip(*sorted(zip(likes, comments), key=itemgetter(0), reverse=True))]\n\n    return dict(comments=comments)\n\n@auth.requires_login()\ndef Socialcount():\n    rows = fbdb(fbdb.news.id <> \'\').select()\n    for row in rows:\n        news_object = News(row.href)\n        news_object.updateSocialCount()\n\n    return \'OK\'\n\ndef fix_url():\n    rows = fbdb(fbdb.news_comments.news_fid == None).select()\n    for row in rows:\n        fid = row["fid"]\n        news_fid = fid.split(\'_\')[0]\n        #url = "http://" + urllib.quote(href.split("http://")[1])\n        #og = get_og_url(url)\n        #fid = og["fid"]\n        #fb_url = og["fb_url"]\n\n        row.update_record(news_fid=news_fid)\n\n@auth.requires_login()\ndef update_socialcount():\n    rows = fbdb(fbdb.news.fid <> None).select()\n    test=[]\n    for row in rows:\n        news_object = News(row.href)\n        test.append(news_object.fb_url)\n        news_object.updateSocialCount()\n        \n\n    return test\n\ndef fix_seg():\n    rows = fbdb(fbdb.news_comments.id <> \'\').select()\n    for row in rows:\n        message = row["message"]\n        segment = list(jieba.cut(message))\n        row.update_record(segment=segment)\n\n\ndef kimono_api(url, from_team):\n    response = urllib.urlopen(url)\n    data = json.load(response)\n    updatedtime = parser.parse(data["lastsuccess"]) + timedelta(hours=8)\n    news_array = data["results"]["collection1"]\n    for news in news_array:\n        date_time = news["datetime"]\n        if u\' \xe5\xb0\x8f\xe6\x99\x82\xe5\x89\x8d\' in date_time:\n            hours = int(date_time.strip(u\' \xe5\xb0\x8f\xe6\x99\x82\xe5\x89\x8d\'))\n            date_time = updatedtime - timedelta(hours=hours)\n        elif u\' \xe5\x88\x86\xe9\x90\x98\xe5\x89\x8d\' in date_time:\n            minutes = int(date_time.strip(u\' \xe5\x88\x86\xe9\x90\x98\xe5\x89\x8d\'))\n            date_time = updatedtime - timedelta(minutes=minutes)\n        else:\n            date_time = date_time.replace(u\'\xe5\xb9\xb4\', \'/\').replace(u\'\xe6\x9c\x88\', \'/\').strip(u\'\xe6\x97\xa5\')\n            date_time = parser.parse(date_time) + timedelta(hours=12)\n\n        source = news["source"]\n        summary = news["summary"]\n        title = news["title"]["text"]\n        href = news["title"]["href"]\n        photo = news["photo"]["src"] if \'src\' in news["photo"] else \'\'\n\n        related_news = []\n        related_news_date_time = []\n        related_news_source = []\n\n        # if isinstance(news["related_news_datetime"], list):\n        #     for item in news["related_news_datetime"]:\n        #         if u\' \xe5\xb0\x8f\xe6\x99\x82\xe5\x89\x8d\' in item:\n        #             hours = int(item.strip(u\' \xe5\xb0\x8f\xe6\x99\x82\xe5\x89\x8d\'))\n        #             item = updated_time - timedelta(hours=hours)\n        #             related_news_date_time.append(item)\n        #         elif u\' \xe5\x88\x86\xe9\x90\x98\xe5\x89\x8d\' in item:\n        #             minutes = int(item.strip(u\' \xe5\x88\x86\xe9\x90\x98\xe5\x89\x8d\'))\n        #             item = updated_time - timedelta(minutes=minutes)\n        #             related_news_date_time.append(item)\n        #         else:\n        #             item = item.replace(u\'\xe5\xb9\xb4\', \'/\').replace(u\'\xe6\x9c\x88\', \'/\').strip(u\'\xe6\x97\xa5\')\n        #             item = parser.parse(item) + timedelta(hours=12)\n        #             related_news_date_time.append(item)\n        #     related_news = news["related_news"]\n        #     related_news_source = news["related_news_source"]\n        # elif news["related_news_datetime"] == "":\n        #     pass\n        # else:\n        #     if u\' \xe5\xb0\x8f\xe6\x99\x82\xe5\x89\x8d\' in news["related_news_datetime"]:\n        #         hours = int(news["related_news_datetime"].strip(u\' \xe5\xb0\x8f\xe6\x99\x82\xe5\x89\x8d\'))\n        #         related_news_date_time2 = updated_time - timedelta(hours=hours)\n        #     elif u\' \xe5\x88\x86\xe9\x90\x98\xe5\x89\x8d\' in news["related_news_datetime"]:\n        #         minutes = int(news["related_news_datetime"].strip(u\' \xe5\x88\x86\xe9\x90\x98\xe5\x89\x8d\'))\n        #         related_news_date_time2 = updated_time - timedelta(minutes=minutes)\n        #     else:\n        #         related_news_date_time2 = news["related_news_datetime"].replace(u\'\xe5\xb9\xb4\', \'/\').replace(u\'\xe6\x9c\x88\', \'/\').strip(\n        #             u\'\xe6\x97\xa5\')\n        #         related_news_date_time2 = parser.parse(related_news_date_time2) + timedelta(hours=12)\n        #\n        #     related_news.append(news["related_news"])\n        #     related_news_date_time.append(related_news_date_time2)\n        #     related_news_source.append(news["related_news_source"])\n        if href != \'\':\n            #url = "http://" + urllib.quote(href.split("http://")[1])\n            href = href.strip()\n            url2 = href.split("://")[0] + "://" + urllib.quote(href.split("://")[1])\n            og = get_og_url(url2)\n            # fid = og["fid"]\n            # fb_url = og["fb_url"]\n            # created_time = og["created_time"]\n            # updated_time = og["updated_time"]\n            # share_count = og["share_count"]\n            # comment_count = og["comment_count"]\n            if og["title"] == None:\n                og["title"] = title\n            fbdb.news.update_or_insert(fbdb.news.href==href,from_team=from_team, href=href,summary=summary, source=source, date_time=date_time,  **og)\n            # fbdb.news.update_or_insert(fbdb.news.href==href, fb_url=fb_url, href=href, created_time=created_time,updated_time=updated_time, date_time=date_time, source=source, summary=summary, title=title, photo=photo, related_news=json.dumps(related_news),\n            #                  related_news_date_time=related_news_date_time,\n            #                  related_news_source=json.dumps(related_news_source), from_team=from_team,\n            #                  share_count=share_count, comment_count=comment_count)\n            fbdb.commit()\n\n                #getUrlSocialCount(fb_url)\n\n    return json.dumps(data)\n    #return "Success!"\n    #return dict(message="hello from newsAPI.py")\n\ndef checkDBNewsCommentsFromDate(from_date):\n    from_date = datetime.datetime.strptime(from_date, "%Y/%m/%d")\n    rows = fbdb(fbdb.news.date_time >= from_date).select()\n    for row in rows:\n        ids = row["fid"]\n        if ids != None:\n            #ids = "http://" + urllib.quote(ids.split("http://")[1])\n            from_team = row["from_team"]\n            news_source = row["source"]\n            getNewsComments(ids, from_team, news_source)\n\n@auth.requires_login()\ndef checkDBNewsComments():\n    rows = fbdb((fbdb.news.fid <> None) & (fbdb.news.comment_count > 0)).select()  #\n    for row in rows:\n        ids = row["fid"]\n        if ids != None:\n            #ids = "http://" + urllib.quote(ids.split("http://")[1])\n            from_team = row["from_team"]\n            news_source = row["source"]\n            getNewsComments(ids, from_team, news_source)\n\n    return "Ok"\n\ndef BestComments():\n    stoplist = list(delZhStr)\n    stoplist.extend(stopwords)\n    p_wordclouds = []\n    p_wordcloud = []\n    p_wordclouds2 = []\n\n    male_wordcloud = []\n    female_wordcloud = []\n\n    male_wordclouds = []\n    male_wordclouds_a = []\n    male_wordclouds_n = []\n    male_wordclouds_nr = []\n    male_wordclouds_v = []\n\n    female_wordclouds = []\n    female_wordclouds_a = []\n    female_wordclouds_n = []\n    female_wordclouds_nr = []\n    female_wordclouds_v = []\n\n    male_wordcloud_a = []\n    male_wordcloud_n = []\n    male_wordcloud_nr = []\n    male_wordcloud_v = []\n\n    female_wordcloud_a = []\n    female_wordcloud_n = []\n    female_wordcloud_nr = []\n    female_wordcloud_v = []\n\n    wordcloud_a = []\n    wordcloud_n = []\n    wordcloud_nr = []\n    wordcloud_v = []\n    wordcloud_a2 = []\n    wordcloud_n2 = []\n    wordcloud_nr2 = []\n    wordcloud_v2 = []\n\n    now = datetime.datetime.today()\n    q_time = now - timedelta(days=7)\n    #rows = fbdb((fbdb.news_comments.like_count >= 1)&(fbdb.news_comments.from_team==\'\xe9\x80\xa3\xe5\x8b\x9d\xe6\x96\x87\')&(fbdb.news_comments.created_time >=q_time)).select()\n    rows = fbdb(fbdb.news_comments.id <> \'\').select()\n    for row in rows:\n        #segments = list(set(row[\'segment\']))\n        segments = pseg.cut(row[\'message\'])\n        count = row["like_count"]  #// 10\n        #count= 1\n        wordclouds_a = []\n        wordclouds_n = []\n        wordclouds_nr = []\n        wordclouds_v = []\n        for j in range(0, count):\n            for i in segments:\n                if (i.word not in stoplist):\n                    p_wordclouds2.append(i.word)\n                if (re.search("^a", i.flag) <> None) & (i.word not in stoplist):\n                    wordclouds_a.append(i.word)\n                elif (i.flag == \'n\') & (i.word not in stoplist):\n                    wordclouds_n.append(i.word)\n                elif (i.flag == \'nr\') & (i.word not in stoplist):\n                    wordclouds_nr.append(i.word)\n                elif (re.search("^v", i.flag) <> None) & (i.word not in stoplist):\n                    wordclouds_v.append(i.word)\n        p_wordclouds.extend(p_wordclouds2)\n        userid = row["from_id"]\n        user = fbdb(fbdb.people.uid == userid).select().first()\n        sex = user[\'gender\'] if user else None\n        #likes = row[\'likes\'] if ((\'likes\' in row) & (row[\'likes\'] != None) & (row[\'likes\'] != {})) else []\n        #for like in likes:\n        wordcloud_a2.extend(list(set(wordclouds_a)))\n        wordcloud_n2.extend(list(set(wordclouds_n)))\n        wordcloud_nr2.extend(list(set(wordclouds_nr)))\n        wordcloud_v2.extend(list(set(wordclouds_v)))\n\n        if sex == \'female\':\n            female_wordclouds.extend(list(set(p_wordclouds2)))\n            female_wordclouds_a.extend(list(set(wordclouds_a)))\n            female_wordclouds_n.extend(list(set(wordclouds_n)))\n            female_wordclouds_nr.extend(list(set(wordclouds_nr)))\n            female_wordclouds_v.extend(list(set(wordclouds_v)))\n        elif sex == \'male\':\n            male_wordclouds.extend(list(set(p_wordclouds2)))\n            male_wordclouds_a.extend(list(set(wordclouds_a)))\n            male_wordclouds_n.extend(list(set(wordclouds_n)))\n            male_wordclouds_nr.extend(list(set(wordclouds_nr)))\n            male_wordclouds_v.extend(list(set(wordclouds_v)))\n        else:\n            pass\n    for item in Counter(wordcloud_a2).most_common(150):\n        #s = SnowNLP(item[0]) , \'tag\': s.tags\n        wordcloud_a.append({\'name\': item[0], \'size\': item[1]})\n    for item in Counter(wordcloud_n2).most_common(150):\n        #s = SnowNLP(item[0]) , \'tag\': s.tags\n        wordcloud_n.append({\'name\': item[0], \'size\': item[1]})\n    for item in Counter(wordcloud_nr2).most_common(150):\n        #s = SnowNLP(item[0]) , \'tag\': s.tags\n        wordcloud_nr.append({\'name\': item[0], \'size\': item[1]})\n    for item in Counter(wordcloud_v2).most_common(150):\n        #s = SnowNLP(item[0]) , \'tag\': s.tags\n        wordcloud_v.append({\'name\': item[0], \'size\': item[1]})\n\n    for item in Counter(female_wordclouds).most_common(150):\n        #s = SnowNLP(item[0]) , \'tag\': s.tags\n        female_wordcloud.append({\'name\': item[0], \'size\': item[1]})\n    for item in Counter(male_wordclouds).most_common(150):\n        #s = SnowNLP(item[0]) , \'tag\': s.tags\n        male_wordcloud.append({\'name\': item[0], \'size\': item[1]})\n\n    list_a_female100 = []\n    list_n_female100 = []\n    list_nr_female100 = []\n    list_v_female100 = []\n\n    for item in Counter(female_wordclouds_a).most_common(100):\n        #s = SnowNLP(item[0]) , \'tag\': s.tags\n        female_wordcloud_a.append({\'name\': item[0], \'size\': item[1]})\n        list_a_female100.append(item[0])\n\n    for item in Counter(female_wordclouds_n).most_common(100):\n        #s = SnowNLP(item[0]) , \'tag\': s.tags\n        female_wordcloud_n.append({\'name\': item[0], \'size\': item[1]})\n        list_n_female100.append(item[0])\n\n    for item in Counter(female_wordclouds_nr).most_common(100):\n        #s = SnowNLP(item[0]) , \'tag\': s.tags\n        female_wordcloud_nr.append({\'name\': item[0], \'size\': item[1]})\n        list_nr_female100.append(item[0])\n\n    for item in Counter(female_wordclouds_v).most_common(100):\n        #s = SnowNLP(item[0]) , \'tag\': s.tags\n        female_wordcloud_v.append({\'name\': item[0], \'size\': item[1]})\n        list_v_female100.append(item[0])\n\n    list_a_male100 = []\n    list_n_male100 = []\n    list_nr_male100 = []\n    list_v_male100 = []\n\n    for item in Counter(male_wordclouds_a).most_common(100):\n        #s = SnowNLP(item[0]) , \'tag\': s.tags\n        male_wordcloud_a.append({\'name\': item[0], \'size\': item[1]})\n        list_a_male100.append(item[0])\n\n    for item in Counter(male_wordclouds_n).most_common(100):\n        #s = SnowNLP(item[0]) , \'tag\': s.tags\n        male_wordcloud_n.append({\'name\': item[0], \'size\': item[1]})\n        list_n_male100.append(item[0])\n\n    for item in Counter(male_wordclouds_nr).most_common(100):\n        #s = SnowNLP(item[0]) , \'tag\': s.tags\n        male_wordcloud_nr.append({\'name\': item[0], \'size\': item[1]})\n        list_nr_male100.append(item[0])\n\n    for item in Counter(male_wordclouds_v).most_common(100):\n        #s = SnowNLP(item[0]) , \'tag\': s.tags\n        male_wordcloud_v.append({\'name\': item[0], \'size\': item[1]})\n        list_v_male100.append(item[0])\n\n    female_wordcloud_a_special = []\n    female_wordcloud_n_special = []\n    female_wordcloud_nr_special = []\n    female_wordcloud_v_special = []\n\n    for item in Counter(female_wordclouds_a).most_common(100):\n        if item[0] not in list_a_male100:\n            female_wordcloud_a_special.append({\'name\': item[0], \'size\': item[1]})\n\n    for item in Counter(female_wordclouds_n).most_common(100):\n        if item[0] not in list_n_male100:\n            female_wordcloud_n_special.append({\'name\': item[0], \'size\': item[1]})\n\n    for item in Counter(female_wordclouds_nr).most_common(100):\n        if item[0] not in list_nr_male100:\n            female_wordcloud_nr_special.append({\'name\': item[0], \'size\': item[1]})\n\n    for item in Counter(female_wordclouds_v).most_common(100):\n        if item[0] not in list_v_male100:\n            female_wordcloud_v_special.append({\'name\': item[0], \'size\': item[1]})\n\n    male_wordcloud_a_special = []\n    male_wordcloud_n_special = []\n    male_wordcloud_nr_special = []\n    male_wordcloud_v_special = []\n\n    for item in Counter(male_wordclouds_a).most_common(100):\n        if item[0] not in list_a_female100:\n            male_wordcloud_a_special.append({\'name\': item[0], \'size\': item[1]})\n\n    for item in Counter(male_wordclouds_n).most_common(100):\n        if item[0] not in list_n_female100:\n            male_wordcloud_n_special.append({\'name\': item[0], \'size\': item[1]})\n\n    for item in Counter(male_wordclouds_nr).most_common(100):\n        if item[0] not in list_nr_female100:\n            male_wordcloud_nr_special.append({\'name\': item[0], \'size\': item[1]})\n\n    for item in Counter(male_wordclouds_v).most_common(100):\n        if item[0] not in list_v_female100:\n            male_wordcloud_v_special.append({\'name\': item[0], \'size\': item[1]})\n\n    flare = {}\n    flare = {"name": "flare", "children": [{"name": "female_wordcloud",\n                                            "children": [{"name": "adj", "children": female_wordcloud_a_special},\n                                                         {"name": "v", "children": female_wordcloud_v_special},\n                                                         {"name": "nr", "children": female_wordcloud_nr_special},\n                                                         {"name": "n", "children": female_wordcloud_n_special}]}]}\n\n    f = open(os.path.join(request.folder,\'private\',\'d3\',\'BestComments_female.json\'), \'w+\')\n    f.write(json.dumps(flare, sort_keys=False, separators=(\',\', \':\'), indent=4))\n    f.close()\n    flare = {}\n    flare = {"name": "flare", "children": [{"name": "male_wordcloud",\n                                            "children": [{"name": "adj", "children": male_wordcloud_a_special},\n                                                         {"name": "v", "children": male_wordcloud_v_special},\n                                                         {"name": "nr", "children": male_wordcloud_nr_special},\n                                                         {"name": "n", "children": male_wordcloud_n_special}]}]}\n    f = open(os.path.join(request.folder,\'private\',\'d3\',\'BestComments_male.json\'), \'w+\')\n    f.write(json.dumps(flare, sort_keys=False, separators=(\',\', \':\'), indent=4))\n    f.close()\n\n    flare = {}\n    flare = {"name": "flare", "children": [{"name": "wordcloud", "children": [{"name": "adj", "children": wordcloud_a},\n                                                                              {"name": "v", "children": wordcloud_v},\n                                                                              {"name": "nr", "children": wordcloud_nr},\n                                                                              {"name": "n", "children": wordcloud_n}]}]}\n    f = open(os.path.join(request.folder,\'private\',\'d3\',\'BestComments.json\'), \'w+\')\n    f.write(json.dumps(flare, sort_keys=False, separators=(\',\', \':\'), indent=4))\n    f.close()\n\n    f = codecs.open(os.path.join(request.folder,\'private\',\'d3\',\'wordcloud.txt\'), \'w+\', \'utf-8\')\n    for item in list(set(p_wordclouds)):\n        f.write(item + \'\\n\')\n    f.close()\n\n    return dict(message="OK")\n    #return len(rows)\n    #return json.dumps(female_wordclouds_nr)\n\n\n\ndef delay():\n    time.sleep(1.5)\n\nresponse._vars=response._caller(index)\n'
p7
sS'snapshot'
p8
(dp9
S'exception'
p10
(dp11
S'__hash__'
p12
S"<method-wrapper '__hash__' of exceptions.KeyError object>"
p13
sS'__setattr__'
p14
S"<method-wrapper '__setattr__' of exceptions.KeyError object>"
p15
sS'__reduce_ex__'
p16
S'<built-in method __reduce_ex__ of exceptions.KeyError object>'
p17
sS'__getslice__'
p18
S"<method-wrapper '__getslice__' of exceptions.KeyError object>"
p19
sS'__getitem__'
p20
S"<method-wrapper '__getitem__' of exceptions.KeyError object>"
p21
sS'__setstate__'
p22
S'<built-in method __setstate__ of exceptions.KeyError object>'
p23
sS'args'
p24
S"('likes',)"
p25
sS'__reduce__'
p26
S'<built-in method __reduce__ of exceptions.KeyError object>'
p27
sS'__str__'
p28
S"<method-wrapper '__str__' of exceptions.KeyError object>"
p29
sS'__format__'
p30
S'<built-in method __format__ of exceptions.KeyError object>'
p31
sS'__getattribute__'
p32
S"<method-wrapper '__getattribute__' of exceptions.KeyError object>"
p33
sS'__class__'
p34
S"<type 'exceptions.KeyError'>"
p35
sS'__unicode__'
p36
S'<built-in method __unicode__ of exceptions.KeyError object>'
p37
sS'__delattr__'
p38
S"<method-wrapper '__delattr__' of exceptions.KeyError object>"
p39
sS'__subclasshook__'
p40
S'<built-in method __subclasshook__ of type object>'
p41
sS'__repr__'
p42
S"<method-wrapper '__repr__' of exceptions.KeyError object>"
p43
sS'__dict__'
p44
S'{}'
p45
sS'__sizeof__'
p46
S'<built-in method __sizeof__ of exceptions.KeyError object>'
p47
sS'__doc__'
p48
S"'Mapping key not found.'"
p49
sS'__init__'
p50
S"<method-wrapper '__init__' of exceptions.KeyError object>"
p51
sS'__new__'
p52
S'<built-in method __new__ of type object>'
p53
ssS'evalue'
p54
S"'likes'"
p55
sS'request'
p56
cgluon.html
XML_unpickle
p57
(S's\xfe[\x00\x00<div><table><tr><td style="font-weight:bold;vertical-align:top;">ajax</td><td style="vertical-align:top;">:</td><td><div>False</div></td></tr><tr><td style="font-weight:bold;vertical-align:top;">application</td><td style="vertical-align:top;">:</td><td><div>fbBrt</div></td></tr><tr><td style="font-weight:bold;vertical-align:top;">args</td><td style="vertical-align:top;">:</td><td><div><table></table></div></td></tr><tr><td style="font-weight:bold;vertical-align:top;">cid</td><td style="vertical-align:top;">:</td><td><div>None</div></td></tr><tr><td style="font-weight:bold;vertical-align:top;">client</td><td style="vertical-align:top;">:</td><td><div>127.0.0.1</div></td></tr><tr><td style="font-weight:bold;vertical-align:top;">controller</td><td style="vertical-align:top;">:</td><td><div>newsAPI</div></td></tr><tr><td style="font-weight:bold;vertical-align:top;">cookies</td><td style="vertical-align:top;">:</td><td><div><table><tr><td style="font-weight:bold;vertical-align:top;">session_id_admin</td><td style="vertical-align:top;">:</td><td><div>127.0.0.1-9af2c555-3449-4e45-8085-df8d161e40ce<table><tr><td style="font-weight:bold;vertical-align:top;">comment</td><td style="vertical-align:top;">:</td><td><div></div></td></tr><tr><td style="font-weight:bold;vertical-align:top;">domain</td><td style="vertical-align:top;">:</td><td><div></div></td></tr><tr><td style="font-weight:bold;vertical-align:top;">expires</td><td style="vertical-align:top;">:</td><td><div></div></td></tr><tr><td style="font-weight:bold;vertical-align:top;">httponly</td><td style="vertical-align:top;">:</td><td><div></div></td></tr><tr><td style="font-weight:bold;vertical-align:top;">max-age</td><td style="vertical-align:top;">:</td><td><div></div></td></tr><tr><td style="font-weight:bold;vertical-align:top;">path</td><td style="vertical-align:top;">:</td><td><div></div></td></tr><tr><td style="font-weight:bold;vertical-align:top;">secure</td><td style="vertical-align:top;">:</td><td><div></div></td></tr><tr><td style="font-weight:bold;vertical-align:top;">version</td><td style="vertical-align:top;">:</td><td><div></div></td></tr></table></div></td></tr><tr><td style="font-weight:bold;vertical-align:top;">session_id_fbbrt</td><td style="vertical-align:top;">:</td><td><div>127.0.0.1-407a5cef-8edd-48e1-9489-fc7da7b99f55<table><tr><td style="font-weight:bold;vertical-align:top;">comment</td><td style="vertical-align:top;">:</td><td><div></div></td></tr><tr><td style="font-weight:bold;vertical-align:top;">domain</td><td style="vertical-align:top;">:</td><td><div></div></td></tr><tr><td style="font-weight:bold;vertical-align:top;">expires</td><td style="vertical-align:top;">:</td><td><div></div></td></tr><tr><td style="font-weight:bold;vertical-align:top;">httponly</td><td style="vertical-align:top;">:</td><td><div></div></td></tr><tr><td style="font-weight:bold;vertical-align:top;">max-age</td><td style="vertical-align:top;">:</td><td><div></div></td></tr><tr><td style="font-weight:bold;vertical-align:top;">path</td><td style="vertical-align:top;">:</td><td><div></div></td></tr><tr><td style="font-weight:bold;vertical-align:top;">secure</td><td style="vertical-align:top;">:</td><td><div></div></td></tr><tr><td style="font-weight:bold;vertical-align:top;">version</td><td style="vertical-align:top;">:</td><td><div></div></td></tr></table></div></td></tr><tr><td style="font-weight:bold;vertical-align:top;">session_id_welcome</td><td style="vertical-align:top;">:</td><td><div>127.0.0.1-6e85adf7-33b1-401a-920c-1b9fb8d16431<table><tr><td style="font-weight:bold;vertical-align:top;">comment</td><td style="vertical-align:top;">:</td><td><div></div></td></tr><tr><td style="font-weight:bold;vertical-align:top;">domain</td><td style="vertical-align:top;">:</td><td><div></div></td></tr><tr><td style="font-weight:bold;vertical-align:top;">expires</td><td style="vertical-align:top;">:</td><td><div></div></td></tr><tr><td style="font-weight:bold;vertical-align:top;">httponly</td><td style="vertical-align:top;">:</td><td><div></div></td></tr><tr><td style="font-weight:bold;vertical-align:top;">max-age</td><td style="vertical-align:top;">:</td><td><div></div></td></tr><tr><td style="font-weight:bold;vertical-align:top;">path</td><td style="vertical-align:top;">:</td><td><div></div></td></tr><tr><td style="font-weight:bold;vertical-align:top;">secure</td><td style="vertical-align:top;">:</td><td><div></div></td></tr><tr><td style="font-weight:bold;vertical-align:top;">version</td><td style="vertical-align:top;">:</td><td><div></div></td></tr></table></div></td></tr></table></div></td></tr><tr><td style="font-weight:bold;vertical-align:top;">env</td><td style="vertical-align:top;">:</td><td><div><table><tr><td style="font-weight:bold;vertical-align:top;">HTTP_ACCEPT</td><td style="vertical-align:top;">:</td><td><div>text/html,application/xhtml+xml,application/xml;q=0.9,*/*;q=0.8</div></td></tr><tr><td style="font-weight:bold;vertical-align:top;">HTTP_ACCEPT_ENCODING</td><td style="vertical-align:top;">:</td><td><div>gzip, deflate</div></td></tr><tr><td style="font-weight:bold;vertical-align:top;">HTTP_ACCEPT_LANGUAGE</td><td style="vertical-align:top;">:</td><td><div>en-us</div></td></tr><tr><td style="font-weight:bold;vertical-align:top;">HTTP_CONNECTION</td><td style="vertical-align:top;">:</td><td><div>keep-alive</div></td></tr><tr><td style="font-weight:bold;vertical-align:top;">HTTP_COOKIE</td><td style="vertical-align:top;">:</td><td><div>session_id_admin=127.0.0.1-9af2c555-3449-4e45-8085-df8d161e40ce; session_id_fbbrt=127.0.0.1-407a5cef-8edd-48e1-9489-fc7da7b99f55; session_id_welcome=127.0.0.1-6e85adf7-33b1-401a-920c-1b9fb8d16431</div></td></tr><tr><td style="font-weight:bold;vertical-align:top;">HTTP_HOST</td><td style="vertical-align:top;">:</td><td><div>localhost:8088</div></td></tr><tr><td style="font-weight:bold;vertical-align:top;">HTTP_USER_AGENT</td><td style="vertical-align:top;">:</td><td><div>Mozilla/5.0 (Macintosh; Intel Mac OS X 10_10_2) AppleWebKit/600.3.18 (KHTML, like Gecko) Version/8.0.3 Safari/600.3.18</div></td></tr><tr><td style="font-weight:bold;vertical-align:top;">PATH_INFO</td><td style="vertical-align:top;">:</td><td><div>/fbBrt/newsAPI/index</div></td></tr><tr><td style="font-weight:bold;vertical-align:top;">QUERY_STRING</td><td style="vertical-align:top;">:</td><td><div></div></td></tr><tr><td style="font-weight:bold;vertical-align:top;">REMOTE_ADDR</td><td style="vertical-align:top;">:</td><td><div>127.0.0.1</div></td></tr><tr><td style="font-weight:bold;vertical-align:top;">REMOTE_PORT</td><td style="vertical-align:top;">:</td><td><div>57167</div></td></tr><tr><td style="font-weight:bold;vertical-align:top;">REQUEST_METHOD</td><td style="vertical-align:top;">:</td><td><div>GET</div></td></tr><tr><td style="font-weight:bold;vertical-align:top;">SCRIPT_NAME</td><td style="vertical-align:top;">:</td><td><div></div></td></tr><tr><td style="font-weight:bold;vertical-align:top;">SERVER_NAME</td><td style="vertical-align:top;">:</td><td><div>maclogair.local</div></td></tr><tr><td style="font-weight:bold;vertical-align:top;">SERVER_PORT</td><td style="vertical-align:top;">:</td><td><div>8088</div></td></tr><tr><td style="font-weight:bold;vertical-align:top;">SERVER_PROTOCOL</td><td style="vertical-align:top;">:</td><td><div>HTTP/1.1</div></td></tr><tr><td style="font-weight:bold;vertical-align:top;">SERVER_SOFTWARE</td><td style="vertical-align:top;">:</td><td><div>Rocket 1.2.6</div></td></tr><tr><td style="font-weight:bold;vertical-align:top;">app_folders</td><td style="vertical-align:top;">:</td><td><div>set([&#x27;/Users/logyuan/Documents/web2py/applications/fbBrt/&#x27;, &#x27;/Users/logyuan/Documents/web2py/applications/admin/&#x27;, &#x27;/Users/logyuan/Documents/web2py/applications/welcome/&#x27;])</div></td></tr><tr><td style="font-weight:bold;vertical-align:top;">applications_parent</td><td style="vertical-align:top;">:</td><td><div>/Users/logyuan/Documents/web2py</div></td></tr><tr><td style="font-weight:bold;vertical-align:top;">cmd_args</td><td style="vertical-align:top;">:</td><td><div><table></table></div></td></tr><tr><td style="font-weight:bold;vertical-align:top;">cmd_options</td><td style="vertical-align:top;">:</td><td><div>&lt;Values at 0x10e1944d0: {&#x27;verbose&#x27;: False, &#x27;ip&#x27;: &#x27;127.0.0.1&#x27;, &#x27;debuglevel&#x27;: 30, &#x27;with_scheduler&#x27;: False, &#x27;ips&#x27;: [&#x27;192.168.2.1&#x27;, &#x27;fe80::60c:ceff:fee3:df4a%en0&#x27;, &#x27;10.37.129.2&#x27;, &#x27;fe80::40c:ceff:fe3e:b700%bridge0&#x27;, &#x27;10.211.55.2&#x27;, &#x27;192.168.1.5&#x27;], &#x27;shutdown_timeout&#x27;: 5, &#x27;taskbar&#x27;: False, &#x27;with_coverage&#x27;: False, &#x27;port&#x27;: 8000, &#x27;maxthreads&#x27;: None, &#x27;softcron&#x27;: False, &#x27;server_name&#x27;: &#x27;maclogair.local&#x27;, &#x27;bpython&#x27;: False, &#x27;nogui&#x27;: False, &#x27;pid_filename&#x27;: &#x27;httpserver.pid&#x27;, &#x27;extcron&#x27;: False, &#x27;runcron&#x27;: False, &#x27;run_system_tests&#x27;: False, &#x27;test&#x27;: None, &#x27;folder&#x27;: &#x27;/Users/logyuan/Documents/web2py&#x27;, &#x27;config&#x27;: &#x27;&#x27;, &#x27;minthreads&#x27;: None, &#x27;shell&#x27;: None, &#x27;run&#x27;: &#x27;&#x27;, &#x27;log_filename&#x27;: &#x27;httpserver.log&#x27;, &#x27;profiler_dir&#x27;: None, &#x27;args&#x27;: [&#x27;&#x27;], &#x27;socket_timeout&#x27;: 5, &#x27;ssl_ca_certificate&#x27;: None, &#x27;scheduler&#x27;: None, &#x27;interfaces&#x27;: None, &#x27;ssl_private_key&#x27;: &#x27;&#x27;, &#x27;scheduler_groups&#x27;: None, &#x27;password&#x27;: &#x27;&lt;ask&gt;&#x27;, &#x27;request_queue_size&#x27;: 5, &#x27;ssl_certificate&#x27;: &#x27;&#x27;, &#x27;cronjob&#x27;: False, &#x27;numthreads&#x27;: None, &#x27;quiet&#x27;: False, &#x27;import_models&#x27;: False, &#x27;timeout&#x27;: 10, &#x27;plain&#x27;: False, &#x27;nobanner&#x27;: False}&gt;</div></td></tr><tr><td style="font-weight:bold;vertical-align:top;">db_sessions</td><td style="vertical-align:top;">:</td><td><div>set([])</div></td></tr><tr><td style="font-weight:bold;vertical-align:top;">debugging</td><td style="vertical-align:top;">:</td><td><div>True</div></td></tr><tr><td style="font-weight:bold;vertical-align:top;">gluon_parent</td><td style="vertical-align:top;">:</td><td><div>/Users/logyuan/Documents/web2py</div></td></tr><tr><td style="font-weight:bold;vertical-align:top;">http_accept</td><td style="vertical-align:top;">:</td><td><div>text/html,application/xhtml+xml,application/xml;q=0.9,*/*;q=0.8</div></td></tr><tr><td style="font-weight:bold;vertical-align:top;">http_accept_encoding</td><td style="vertical-align:top;">:</td><td><div>gzip, deflate</div></td></tr><tr><td style="font-weight:bold;vertical-align:top;">http_accept_language</td><td style="vertical-align:top;">:</td><td><div>en-us</div></td></tr><tr><td style="font-weight:bold;vertical-align:top;">http_connection</td><td style="vertical-align:top;">:</td><td><div>keep-alive</div></td></tr><tr><td style="font-weight:bold;vertical-align:top;">http_cookie</td><td style="vertical-align:top;">:</td><td><div>session_id_admin=127.0.0.1-9af2c555-3449-4e45-8085-df8d161e40ce; session_id_fbbrt=127.0.0.1-407a5cef-8edd-48e1-9489-fc7da7b99f55; session_id_welcome=127.0.0.1-6e85adf7-33b1-401a-920c-1b9fb8d16431</div></td></tr><tr><td style="font-weight:bold;vertical-align:top;">http_host</td><td style="vertical-align:top;">:</td><td><div>localhost:8088</div></td></tr><tr><td style="font-weight:bold;vertical-align:top;">http_user_agent</td><td style="vertical-align:top;">:</td><td><div>Mozilla/5.0 (Macintosh; Intel Mac OS X 10_10_2) AppleWebKit/600.3.18 (KHTML, like Gecko) Version/8.0.3 Safari/600.3.18</div></td></tr><tr><td style="font-weight:bold;vertical-align:top;">is_jython</td><td style="vertical-align:top;">:</td><td><div>False</div></td></tr><tr><td style="font-weight:bold;vertical-align:top;">is_pypy</td><td style="vertical-align:top;">:</td><td><div>False</div></td></tr><tr><td style="font-weight:bold;vertical-align:top;">is_source</td><td style="vertical-align:top;">:</td><td><div>True</div></td></tr><tr><td style="font-weight:bold;vertical-align:top;">local_hosts</td><td style="vertical-align:top;">:</td><td><div><table><tr><td><div>192.168.2.1</div></td></tr><tr><td><div>fe80::60c:ceff:fee3:df4a%en0</div></td></tr><tr><td><div>10.37.129.2</div></td></tr><tr><td><div>::ffff:127.0.0.1</div></td></tr><tr><td><div>::1</div></td></tr><tr><td><div>10.211.55.2</div></td></tr><tr><td><div>192.168.1.5</div></td></tr><tr><td><div>fe80::40c:ceff:fe3e:b700%bridge0</div></td></tr><tr><td><div>maclogair.local</div></td></tr><tr><td><div>127.0.0.1</div></td></tr></table></div></td></tr><tr><td style="font-weight:bold;vertical-align:top;">path_info</td><td style="vertical-align:top;">:</td><td><div>/fbBrt/newsAPI/index</div></td></tr><tr><td style="font-weight:bold;vertical-align:top;">query_string</td><td style="vertical-align:top;">:</td><td><div></div></td></tr><tr><td style="font-weight:bold;vertical-align:top;">remote_addr</td><td style="vertical-align:top;">:</td><td><div>127.0.0.1</div></td></tr><tr><td style="font-weight:bold;vertical-align:top;">remote_port</td><td style="vertical-align:top;">:</td><td><div>57167</div></td></tr><tr><td style="font-weight:bold;vertical-align:top;">request_method</td><td style="vertical-align:top;">:</td><td><div>GET</div></td></tr><tr><td style="font-weight:bold;vertical-align:top;">request_uri</td><td style="vertical-align:top;">:</td><td><div>/fbBrt/newsAPI/index</div></td></tr><tr><td style="font-weight:bold;vertical-align:top;">script_name</td><td style="vertical-align:top;">:</td><td><div></div></td></tr><tr><td style="font-weight:bold;vertical-align:top;">server_name</td><td style="vertical-align:top;">:</td><td><div>maclogair.local</div></td></tr><tr><td style="font-weight:bold;vertical-align:top;">server_port</td><td style="vertical-align:top;">:</td><td><div>8088</div></td></tr><tr><td style="font-weight:bold;vertical-align:top;">server_protocol</td><td style="vertical-align:top;">:</td><td><div>HTTP/1.1</div></td></tr><tr><td style="font-weight:bold;vertical-align:top;">server_software</td><td style="vertical-align:top;">:</td><td><div>Rocket 1.2.6</div></td></tr><tr><td style="font-weight:bold;vertical-align:top;">web2py_path</td><td style="vertical-align:top;">:</td><td><div>/Users/logyuan/Documents/web2py</div></td></tr><tr><td style="font-weight:bold;vertical-align:top;">web2py_version</td><td style="vertical-align:top;">:</td><td><div>2.9.5-stable+timestamp.2014.03.20.22.57.13</div></td></tr><tr><td style="font-weight:bold;vertical-align:top;">wsgi.errors</td><td style="vertical-align:top;">:</td><td><div>&lt;open file &#x27;&lt;stderr&gt;&#x27;, mode &#x27;w&#x27; at 0x10cdab1e0&gt;</div></td></tr><tr><td style="font-weight:bold;vertical-align:top;">wsgi.file_wrapper</td><td style="vertical-align:top;">:</td><td><div>&lt;class wsgiref.util.FileWrapper at 0x10e11d870&gt;</div></td></tr><tr><td style="font-weight:bold;vertical-align:top;">wsgi.input</td><td style="vertical-align:top;">:</td><td><div>&lt;socket._fileobject object at 0x114847f50&gt;</div></td></tr><tr><td style="font-weight:bold;vertical-align:top;">wsgi.multiprocess</td><td style="vertical-align:top;">:</td><td><div>False</div></td></tr><tr><td style="font-weight:bold;vertical-align:top;">wsgi.multithread</td><td style="vertical-align:top;">:</td><td><div>True</div></td></tr><tr><td style="font-weight:bold;vertical-align:top;">wsgi.run_once</td><td style="vertical-align:top;">:</td><td><div>False</div></td></tr><tr><td style="font-weight:bold;vertical-align:top;">wsgi.url_scheme</td><td style="vertical-align:top;">:</td><td><div>http</div></td></tr><tr><td style="font-weight:bold;vertical-align:top;">wsgi.version</td><td style="vertical-align:top;">:</td><td><div><table><tr><td><div>1</div></td></tr><tr><td><div>0</div></td></tr></table></div></td></tr><tr><td style="font-weight:bold;vertical-align:top;">wsgi_errors</td><td style="vertical-align:top;">:</td><td><div>&lt;open file &#x27;&lt;stderr&gt;&#x27;, mode &#x27;w&#x27; at 0x10cdab1e0&gt;</div></td></tr><tr><td style="font-weight:bold;vertical-align:top;">wsgi_file_wrapper</td><td style="vertical-align:top;">:</td><td><div>&lt;class wsgiref.util.FileWrapper at 0x10e11d870&gt;</div></td></tr><tr><td style="font-weight:bold;vertical-align:top;">wsgi_input</td><td style="vertical-align:top;">:</td><td><div>&lt;socket._fileobject object at 0x114847f50&gt;</div></td></tr><tr><td style="font-weight:bold;vertical-align:top;">wsgi_multiprocess</td><td style="vertical-align:top;">:</td><td><div>False</div></td></tr><tr><td style="font-weight:bold;vertical-align:top;">wsgi_multithread</td><td style="vertical-align:top;">:</td><td><div>True</div></td></tr><tr><td style="font-weight:bold;vertical-align:top;">wsgi_run_once</td><td style="vertical-align:top;">:</td><td><div>False</div></td></tr><tr><td style="font-weight:bold;vertical-align:top;">wsgi_url_scheme</td><td style="vertical-align:top;">:</td><td><div>http</div></td></tr><tr><td style="font-weight:bold;vertical-align:top;">wsgi_version</td><td style="vertical-align:top;">:</td><td><div><table><tr><td><div>1</div></td></tr><tr><td><div>0</div></td></tr></table></div></td></tr></table></div></td></tr><tr><td style="font-weight:bold;vertical-align:top;">extension</td><td style="vertical-align:top;">:</td><td><div>html</div></td></tr><tr><td style="font-weight:bold;vertical-align:top;">folder</td><td style="vertical-align:top;">:</td><td><div>/Users/logyuan/Documents/web2py/applications/fbBrt/</div></td></tr><tr><td style="font-weight:bold;vertical-align:top;">function</td><td style="vertical-align:top;">:</td><td><div>index</div></td></tr><tr><td style="font-weight:bold;vertical-align:top;">global_settings</td><td style="vertical-align:top;">:</td><td><div><table><tr><td style="font-weight:bold;vertical-align:top;">app_folders</td><td style="vertical-align:top;">:</td><td><div>set([&#x27;/Users/logyuan/Documents/web2py/applications/fbBrt/&#x27;, &#x27;/Users/logyuan/Documents/web2py/applications/admin/&#x27;, &#x27;/Users/logyuan/Documents/web2py/applications/welcome/&#x27;])</div></td></tr><tr><td style="font-weight:bold;vertical-align:top;">applications_parent</td><td style="vertical-align:top;">:</td><td><div>/Users/logyuan/Documents/web2py</div></td></tr><tr><td style="font-weight:bold;vertical-align:top;">cmd_args</td><td style="vertical-align:top;">:</td><td><div><table></table></div></td></tr><tr><td style="font-weight:bold;vertical-align:top;">cmd_options</td><td style="vertical-align:top;">:</td><td><div>&lt;Values at 0x10e1944d0: {&#x27;verbose&#x27;: False, &#x27;ip&#x27;: &#x27;127.0.0.1&#x27;, &#x27;debuglevel&#x27;: 30, &#x27;with_scheduler&#x27;: False, &#x27;ips&#x27;: [&#x27;192.168.2.1&#x27;, &#x27;fe80::60c:ceff:fee3:df4a%en0&#x27;, &#x27;10.37.129.2&#x27;, &#x27;fe80::40c:ceff:fe3e:b700%bridge0&#x27;, &#x27;10.211.55.2&#x27;, &#x27;192.168.1.5&#x27;], &#x27;shutdown_timeout&#x27;: 5, &#x27;taskbar&#x27;: False, &#x27;with_coverage&#x27;: False, &#x27;port&#x27;: 8000, &#x27;maxthreads&#x27;: None, &#x27;softcron&#x27;: False, &#x27;server_name&#x27;: &#x27;maclogair.local&#x27;, &#x27;bpython&#x27;: False, &#x27;nogui&#x27;: False, &#x27;pid_filename&#x27;: &#x27;httpserver.pid&#x27;, &#x27;extcron&#x27;: False, &#x27;runcron&#x27;: False, &#x27;run_system_tests&#x27;: False, &#x27;test&#x27;: None, &#x27;folder&#x27;: &#x27;/Users/logyuan/Documents/web2py&#x27;, &#x27;config&#x27;: &#x27;&#x27;, &#x27;minthreads&#x27;: None, &#x27;shell&#x27;: None, &#x27;run&#x27;: &#x27;&#x27;, &#x27;log_filename&#x27;: &#x27;httpserver.log&#x27;, &#x27;profiler_dir&#x27;: None, &#x27;args&#x27;: [&#x27;&#x27;], &#x27;socket_timeout&#x27;: 5, &#x27;ssl_ca_certificate&#x27;: None, &#x27;scheduler&#x27;: None, &#x27;interfaces&#x27;: None, &#x27;ssl_private_key&#x27;: &#x27;&#x27;, &#x27;scheduler_groups&#x27;: None, &#x27;password&#x27;: &#x27;&lt;ask&gt;&#x27;, &#x27;request_queue_size&#x27;: 5, &#x27;ssl_certificate&#x27;: &#x27;&#x27;, &#x27;cronjob&#x27;: False, &#x27;numthreads&#x27;: None, &#x27;quiet&#x27;: False, &#x27;import_models&#x27;: False, &#x27;timeout&#x27;: 10, &#x27;plain&#x27;: False, &#x27;nobanner&#x27;: False}&gt;</div></td></tr><tr><td style="font-weight:bold;vertical-align:top;">db_sessions</td><td style="vertical-align:top;">:</td><td><div>set([])</div></td></tr><tr><td style="font-weight:bold;vertical-align:top;">debugging</td><td style="vertical-align:top;">:</td><td><div>True</div></td></tr><tr><td style="font-weight:bold;vertical-align:top;">gluon_parent</td><td style="vertical-align:top;">:</td><td><div>/Users/logyuan/Documents/web2py</div></td></tr><tr><td style="font-weight:bold;vertical-align:top;">is_jython</td><td style="vertical-align:top;">:</td><td><div>False</div></td></tr><tr><td style="font-weight:bold;vertical-align:top;">is_pypy</td><td style="vertical-align:top;">:</td><td><div>False</div></td></tr><tr><td style="font-weight:bold;vertical-align:top;">is_source</td><td style="vertical-align:top;">:</td><td><div>True</div></td></tr><tr><td style="font-weight:bold;vertical-align:top;">local_hosts</td><td style="vertical-align:top;">:</td><td><div><table><tr><td><div>192.168.2.1</div></td></tr><tr><td><div>fe80::60c:ceff:fee3:df4a%en0</div></td></tr><tr><td><div>10.37.129.2</div></td></tr><tr><td><div>::ffff:127.0.0.1</div></td></tr><tr><td><div>::1</div></td></tr><tr><td><div>10.211.55.2</div></td></tr><tr><td><div>192.168.1.5</div></td></tr><tr><td><div>fe80::40c:ceff:fe3e:b700%bridge0</div></td></tr><tr><td><div>maclogair.local</div></td></tr><tr><td><div>127.0.0.1</div></td></tr></table></div></td></tr><tr><td style="font-weight:bold;vertical-align:top;">web2py_version</td><td style="vertical-align:top;">:</td><td><div>2.9.5-stable+timestamp.2014.03.20.22.57.13</div></td></tr></table></div></td></tr><tr><td style="font-weight:bold;vertical-align:top;">is_https</td><td style="vertical-align:top;">:</td><td><div>False</div></td></tr><tr><td style="font-weight:bold;vertical-align:top;">is_local</td><td style="vertical-align:top;">:</td><td><div>True</div></td></tr><tr><td style="font-weight:bold;vertical-align:top;">is_restful</td><td style="vertical-align:top;">:</td><td><div>False</div></td></tr><tr><td style="font-weight:bold;vertical-align:top;">now</td><td style="vertical-align:top;">:</td><td><div>datetime.datetime(2015, 2, 26, 10, 42, 16, 714828)</div></td></tr><tr><td style="font-weight:bold;vertical-align:top;">raw_args</td><td style="vertical-align:top;">:</td><td><div></div></td></tr><tr><td style="font-weight:bold;vertical-align:top;">raw_extension</td><td style="vertical-align:top;">:</td><td><div>None</div></td></tr><tr><td style="font-weight:bold;vertical-align:top;">url</td><td style="vertical-align:top;">:</td><td><div>/fbBrt/newsAPI/index</div></td></tr><tr><td style="font-weight:bold;vertical-align:top;">utcnow</td><td style="vertical-align:top;">:</td><td><div>datetime.datetime(2015, 2, 26, 2, 42, 16, 714839)</div></td></tr><tr><td style="font-weight:bold;vertical-align:top;">uuid</td><td style="vertical-align:top;">:</td><td><div>fbBrt/127.0.0.1.2015-02-26.10-42-16.2933ca8a-5735-48d0-ab41-ed947bc2b777</div></td></tr><tr><td style="font-weight:bold;vertical-align:top;">wsgi</td><td style="vertical-align:top;">:</td><td><div>&lt;gluon.main.LazyWSGI object at 0x16199c610&gt;</div></td></tr></table></div>'
tRp58
sS'frames'
p59
(lp60
(dp61
S'file'
p62
S'/Users/logyuan/Documents/web2py/gluon/restricted.py'
p63
sS'dump'
p64
(dp65
S'environment'
p66
S"{'A': <class 'gluon.html.A'>, 'ANY_OF': <class 'gluon.validators.ANY_OF'>, 'Auth': <class 'gluon.tools.Auth'>, 'B': <class 'gluon.html.B'>, 'BEAUTIFY': <class 'gluon.html.BEAUTIFY'>, 'BODY': <class 'gluon.html.BODY'>, 'BR': <class 'gluon.html.BR'>, 'BUTTON': <class 'gluon.html.BUTTON'>, 'BestComments': <function BestComments>, 'CAT': <class 'gluon.html.CAT'>, ...}"
p67
sS'ccode'
p68
S'<code object <module> at 0x110355eb0, file "/Use...plications/fbBrt/controllers/newsAPI.py", line 3>'
p69
ssS'lnum'
p70
I220
sS'lines'
p71
(dp72
I224
S'        # do not encapsulate (obfuscate) the original RestrictedError'
p73
sI215
S'    try:'
p74
sI216
S'        if isinstance(code, types.CodeType):'
p75
sI217
S'            ccode = code'
p76
sI218
S'        else:'
p77
sI219
S'            ccode = compile2(code, layer)'
p78
sI220
S'        exec ccode in environment'
p79
sI221
S'    except HTTP:'
p80
sI222
S'        raise'
p81
sI223
S'    except RestrictedError:'
p82
ssS'call'
p83
S"(code='# coding: utf8\\n# try something like\\nimport urlli...eep(1.5)\\n\\nresponse._vars=response._caller(index)\\n', environment={'A': <class 'gluon.html.A'>, 'ANY_OF': <class 'gluon.validators.ANY_OF'>, 'Auth': <class 'gluon.tools.Auth'>, 'B': <class 'gluon.html.B'>, 'BEAUTIFY': <class 'gluon.html.BEAUTIFY'>, 'BODY': <class 'gluon.html.BODY'>, 'BR': <class 'gluon.html.BR'>, 'BUTTON': <class 'gluon.html.BUTTON'>, 'BestComments': <function BestComments>, 'CAT': <class 'gluon.html.CAT'>, ...}, layer='/Users/logyuan/Documents/web2py/applications/fbBrt/controllers/newsAPI.py')"
p84
sS'func'
p85
S'restricted'
p86
sa(dp87
g62
S'/Users/logyuan/Documents/web2py/applications/fbBrt/controllers/newsAPI.py'
p88
sg64
(dp89
sg70
I518
sg71
(dp90
I512
S''
sI513
S''
sI514
S''
sI515
S'def delay():'
p91
sI516
S'    time.sleep(1.5)'
p92
sI507
S'    f.close()'
p93
sI508
S''
sI509
S'    return dict(message="OK")'
p94
sI510
S'    #return len(rows)'
p95
sI511
S'    #return json.dumps(female_wordclouds_nr)'
p96
ssg83
S'()'
p97
sg85
S'<module>'
p98
sa(dp99
g62
S'/Users/logyuan/Documents/web2py/gluon/globals.py'
p100
sg64
(dp101
S'self'
p102
S'undefined'
p103
sS'f'
S'<function index>'
p104
ssg70
I385
sg71
(dp105
I384
S'        self._vars = None'
p106
sI385
S'        self._caller = lambda f: f()'
p107
sI386
S'        self._view_environment = None'
p108
sI387
S'        self._custom_commit = None'
p109
sI388
S'        self._custom_rollback = None'
p110
sI389
S''
sI380
S'        self.menu = []             # used by the default view layout'
p111
sI381
S'        self.files = []            # used by web2py_ajax.html'
p112
sI382
S'        self.generic_patterns = []  # patterns to allow generic views'
p113
sI383
S"        self.delimiters = ('{{', '}}')"
p114
ssg83
S'(f=<function index>)'
p115
sg85
S'<lambda>'
p116
sa(dp117
g62
S'/Users/logyuan/Documents/web2py/applications/fbBrt/controllers/newsAPI.py'
p118
sg64
(dp119
S'global checkDBNewsComments'
p120
S'<function checkDBNewsComments>'
p121
ssg70
I84
sg71
(dp122
I79
S'    Socialcount()'
p123
sI80
S'    ended_time = datetime.datetime.now()'
p124
sI81
S"    fbdb.event_logs.insert(function='updateSocialcount', started_time=started_time, ended_time=ended_time)"
p125
sI82
S'    fbdb.commit()'
p126
sI83
S'    started_time = datetime.datetime.now()'
p127
sI84
S'    checkDBNewsComments()'
p128
sI85
S'    ended_time = datetime.datetime.now()'
p129
sI86
S"    fbdb.event_logs.insert(function='checkDBNewsComments', started_time=started_time, ended_time=ended_time)"
p130
sI87
S'    fbdb.commit()'
p131
sI88
S''
ssg83
S'()'
p132
sg85
S'index'
p133
sa(dp134
g62
S'/Users/logyuan/Documents/web2py/gluon/tools.py'
p135
sg64
(dp136
S'action'
p137
S'<function checkDBNewsComments>'
p138
sS'a'
S'()'
p139
sS'b'
g45
ssg70
I3287
sg71
(dp140
I3282
S'                    flag = condition'
p141
sI3283
S'                if not flag:'
p142
sI3284
S'                    current.session.flash = self.messages.access_denied'
p143
sI3285
S'                    return call_or_redirect('
p144
sI3286
S'                        self.settings.on_failed_authorization)'
p145
sI3287
S'                return action(*a, **b)'
p146
sI3288
S'            f.__doc__ = action.__doc__'
p147
sI3289
S'            f.__name__ = action.__name__'
p148
sI3290
S'            f.__dict__.update(action.__dict__)'
p149
sI3291
S'            return f'
p150
ssg83
S'(*a=(), **b={})'
p151
sg85
S'f'
sa(dp152
g62
S'/Users/logyuan/Documents/web2py/applications/fbBrt/controllers/newsAPI.py'
p153
sg64
(dp154
S'news_source'
p155
S"'\\xe8\\x98\\x8b\\xe6\\x9e\\x9c\\xe6\\x97\\xa5\\xe5\\xa0\\xb1'"
p156
sS'global getNewsComments'
p157
S'<function getNewsComments>'
p158
sS'ids'
p159
S"'812216578849978'"
p160
sS'from_team'
p161
S"'BRT'"
p162
ssg70
I268
sg71
(dp163
I263
S'        ids = row["fid"]'
p164
sI264
S'        if ids != None:'
p165
sI265
S'            #ids = "http://" + urllib.quote(ids.split("http://")[1])'
p166
sI266
S'            from_team = row["from_team"]'
p167
sI267
S'            news_source = row["source"]'
p168
sI268
S'            getNewsComments(ids, from_team, news_source)'
p169
sI269
S''
sI270
S'    return "Ok"'
p170
sI271
S''
sI272
S'def BestComments():'
p171
ssg83
S'()'
p172
sg85
S'checkDBNewsComments'
p173
sa(dp174
g62
S'/Users/logyuan/Documents/web2py/gluon/tools.py'
p175
sg64
(dp176
S'action'
p177
S'<function getNewsComments>'
p178
sS'a'
S"('812216578849978', 'BRT', '\\xe8\\x98\\x8b\\xe6\\x9e\\x9c\\xe6\\x97\\xa5\\xe5\\xa0\\xb1')"
p179
sS'b'
g45
ssg70
I3287
sg71
(dp180
I3282
S'                    flag = condition'
p181
sI3283
S'                if not flag:'
p182
sI3284
S'                    current.session.flash = self.messages.access_denied'
p183
sI3285
S'                    return call_or_redirect('
p184
sI3286
S'                        self.settings.on_failed_authorization)'
p185
sI3287
S'                return action(*a, **b)'
p186
sI3288
S'            f.__doc__ = action.__doc__'
p187
sI3289
S'            f.__name__ = action.__name__'
p188
sI3290
S'            f.__dict__.update(action.__dict__)'
p189
sI3291
S'            return f'
p190
ssg83
S"(*a=('812216578849978', 'BRT', '\\xe8\\x98\\x8b\\xe6\\x9e\\x9c\\xe6\\x97\\xa5\\xe5\\xa0\\xb1'), **b={})"
p191
sg85
S'f'
sa(dp192
g62
S'/Users/logyuan/Documents/web2py/applications/fbBrt/models/graph.py'
p193
sg64
(dp194
S'item'
p195
S"{'can_remove': False, 'created_time': '2015-01-13T01:40:23+0000', 'from': {'id': '885508444805403', 'name': u'\\u80b2\\u9418'}, 'id': '812216578849978_812642948807341', 'like_count': 1, 'message': u'\\u6e05\\u67e5\\u72d7\\u6c11\\u6d1e16\\u5e74\\u4f86\\u8caa\\u6c59\\u591a\\u5c11\\u7a05\\u91d1'}"
p196
sS'like_count'
p197
S'1'
sS'likes'
p198
S"{'data': [{'id': '934495629907836', 'name': u'\\u9ec3\\u93f5\\u53f3'}], 'paging': {'cursors': {'after': 'OTM0NDk1NjI5OTA3ODM2', 'before': 'OTM0NDk1NjI5OTA3ODM2'}}}"
p199
ssg70
I1566
sg71
(dp200
I1568
S''
sI1569
S'                fbdb.news_comments.update_or_insert(fbdb.news_comments.fid == fid, fid=fid, from_id=from_id,'
p201
sI1570
S'                                                    from_name=from_name, message=message, comments=comments, created_time=created_time,'
p202
sI1561
S'                        comments_arr.append(comm["message"])'
p203
sI1562
S'                can_remove = item["can_remove"] if \'can_remove\' in item else None'
p204
sI1563
S'                segment = list(jieba.cut(message))'
p205
sI1564
S"                #segment = pseg.cut(row['message'])"
p206
sI1565
S'                like_count = item["like_count"] if \'like_count\' in item else 0'
p207
sI1566
S'                likes = item["likes"] if like_count > 0 else {}'
p208
sI1567
S''
ssg83
S"(ids='812216578849978', from_team='BRT', news_source='\\xe8\\x98\\x8b\\xe6\\x9e\\x9c\\xe6\\x97\\xa5\\xe5\\xa0\\xb1')"
p209
sg85
S'getNewsComments'
p210
sasS'pyver'
p211
S'Python 2.7.7: /usr/local/opt/python/bin/python2.7 (prefix: /usr/local/Cellar/python/2.7.7_1/Frameworks/Python.framework/Versions/2.7)'
p212
sS'session'
p213
g57
(S's\xa3\x0b\x00\x00<div><table><tr><td style="font-weight:bold;vertical-align:top;">auth</td><td style="vertical-align:top;">:</td><td><div><table><tr><td style="font-weight:bold;vertical-align:top;">expiration</td><td style="vertical-align:top;">:</td><td><div>3600</div></td></tr><tr><td style="font-weight:bold;vertical-align:top;">hmac_key</td><td style="vertical-align:top;">:</td><td><div>94685368-0a8b-4294-86c5-b11d640738dc</div></td></tr><tr><td style="font-weight:bold;vertical-align:top;">last_visit</td><td style="vertical-align:top;">:</td><td><div>datetime.datetime(2015, 2, 26, 10, 42, 12, 129136)</div></td></tr><tr><td style="font-weight:bold;vertical-align:top;">remember</td><td style="vertical-align:top;">:</td><td><div>False</div></td></tr><tr><td style="font-weight:bold;vertical-align:top;">user</td><td style="vertical-align:top;">:</td><td><div><table><tr><td style="font-weight:bold;vertical-align:top;">first_name</td><td style="vertical-align:top;">:</td><td><div>Chih-Yuan</div></td></tr><tr><td style="font-weight:bold;vertical-align:top;">id</td><td style="vertical-align:top;">:</td><td><div>5L</div></td></tr><tr><td style="font-weight:bold;vertical-align:top;">last_name</td><td style="vertical-align:top;">:</td><td><div>Chen</div></td></tr><tr><td style="font-weight:bold;vertical-align:top;">registration_id</td><td style="vertical-align:top;">:</td><td><div>10152723143866527</div></td></tr><tr><td style="font-weight:bold;vertical-align:top;">registration_key</td><td style="vertical-align:top;">:</td><td><div></div></td></tr><tr><td style="font-weight:bold;vertical-align:top;">username</td><td style="vertical-align:top;">:</td><td><div>10152723143866527</div></td></tr></table></div></td></tr><tr><td style="font-weight:bold;vertical-align:top;">user_groups</td><td style="vertical-align:top;">:</td><td><div><table><tr><td style="font-weight:bold;vertical-align:top;">5</td><td style="vertical-align:top;">:</td><td><div>user_5</div></td></tr></table></div></td></tr></table></div></td></tr><tr><td style="font-weight:bold;vertical-align:top;">flash</td><td style="vertical-align:top;">:</td><td><div>None</div></td></tr><tr><td style="font-weight:bold;vertical-align:top;">redirect_uri</td><td style="vertical-align:top;">:</td><td><div>http://localhost:8088/fbBrt/default/user/login</div></td></tr><tr><td style="font-weight:bold;vertical-align:top;">token</td><td style="vertical-align:top;">:</td><td><div><table><tr><td style="font-weight:bold;vertical-align:top;">access_token</td><td style="vertical-align:top;">:</td><td><div>CAAPXPqLzG54BALYnRu2HQcbU4atQpI5j16bmk5ffYiE5ZA7sCZB8ZCPH1uJ1SNGgywD1cnUuiTlsjFf8Mw9euckczrnTl5SslvWpLbYaTkzVHnwPh6rnfo37KZCLeWTg8I2DR1VLUA16VjYcZAlyocZB1ZCn14gB9x4G67sE5KiZBcRSN9D8ZCpdlCU6osYpqyHlH6vx168UxYBGMZCuRT5ZCK8</div></td></tr><tr><td style="font-weight:bold;vertical-align:top;">expires</td><td style="vertical-align:top;">:</td><td><div>1430102531.707779</div></td></tr></table></div></td></tr></table></div>'
tRp214
sS'etype'
p215
S"<type 'exceptions.KeyError'>"
p216
sS'date'
p217
S'Thu Feb 26 11:28:45 2015'
p218
sS'response'
p219
g57
(S's\xa0#\x00\x00<div><table><tr><td style="font-weight:bold;vertical-align:top;">body</td><td style="vertical-align:top;">:</td><td><div>&lt;cStringIO.StringO object at 0x110d10228&gt;</div></td></tr><tr><td style="font-weight:bold;vertical-align:top;">cookies</td><td style="vertical-align:top;">:</td><td><div><table><tr><td style="font-weight:bold;vertical-align:top;">session_id_fbbrt</td><td style="vertical-align:top;">:</td><td><div>127.0.0.1-407a5cef-8edd-48e1-9489-fc7da7b99f55<table><tr><td style="font-weight:bold;vertical-align:top;">comment</td><td style="vertical-align:top;">:</td><td><div></div></td></tr><tr><td style="font-weight:bold;vertical-align:top;">domain</td><td style="vertical-align:top;">:</td><td><div></div></td></tr><tr><td style="font-weight:bold;vertical-align:top;">expires</td><td style="vertical-align:top;">:</td><td><div></div></td></tr><tr><td style="font-weight:bold;vertical-align:top;">httponly</td><td style="vertical-align:top;">:</td><td><div></div></td></tr><tr><td style="font-weight:bold;vertical-align:top;">max-age</td><td style="vertical-align:top;">:</td><td><div></div></td></tr><tr><td style="font-weight:bold;vertical-align:top;">path</td><td style="vertical-align:top;">:</td><td><div>/</div></td></tr><tr><td style="font-weight:bold;vertical-align:top;">secure</td><td style="vertical-align:top;">:</td><td><div></div></td></tr><tr><td style="font-weight:bold;vertical-align:top;">version</td><td style="vertical-align:top;">:</td><td><div></div></td></tr></table></div></td></tr></table></div></td></tr><tr><td style="font-weight:bold;vertical-align:top;">delimiters</td><td style="vertical-align:top;">:</td><td><div><table><tr><td><div>{{</div></td></tr><tr><td><div>}}</div></td></tr></table></div></td></tr><tr><td style="font-weight:bold;vertical-align:top;">files</td><td style="vertical-align:top;">:</td><td><div><table></table></div></td></tr><tr><td style="font-weight:bold;vertical-align:top;">flash</td><td style="vertical-align:top;">:</td><td><div>Logged in</div></td></tr><tr><td style="font-weight:bold;vertical-align:top;">generic_patterns</td><td style="vertical-align:top;">:</td><td><div><table></table></div></td></tr><tr><td style="font-weight:bold;vertical-align:top;">google_analytics_id</td><td style="vertical-align:top;">:</td><td><div>None</div></td></tr><tr><td style="font-weight:bold;vertical-align:top;">headers</td><td style="vertical-align:top;">:</td><td><div><table><tr><td style="font-weight:bold;vertical-align:top;">X-Powered-By</td><td style="vertical-align:top;">:</td><td><div>web2py</div></td></tr></table></div></td></tr><tr><td style="font-weight:bold;vertical-align:top;">logo</td><td style="vertical-align:top;">:</td><td><div><a class="brand" href="http://www.web2py.com/"><b>web<span>2</span>py</b>&trade;&nbsp;</a></div></td></tr><tr><td style="font-weight:bold;vertical-align:top;">menu</td><td style="vertical-align:top;">:</td><td><div><table><tr><td><div><table><tr><td><div>BRT\xe6\x96\xb0\xe8\x81\x9e</div></td></tr><tr><td><div>False</div></td></tr><tr><td><div>/fbBrt/default/display_news</div></td></tr><tr><td><div><table><tr><td><div><table><tr><td><div>\xe5\x8d\xb3\xe6\x99\x82\xe6\x96\xb0\xe8\x81\x9e</div></td></tr><tr><td><div>False</div></td></tr><tr><td><div>/fbBrt/default/realtime_news</div></td></tr></table></div></td></tr><tr><td><div><table><tr><td><div>\xe6\x9c\xac\xe9\x80\xb1\xe6\x9c\x80\xe7\x86\xb1\xe9\x96\x80</div></td></tr><tr><td><div>False</div></td></tr><tr><td><div>/fbBrt/default/Hottest_news</div></td></tr></table></div></td></tr><tr><td><div><table><tr><td><div>\xe6\xad\xb7\xe5\x8f\xb2\xe6\x96\xb0\xe8\x81\x9e\xe6\x8e\x92\xe5\x90\x8d</div></td></tr><tr><td><div>False</div></td></tr><tr><td><div>/fbBrt/default/History_news</div></td></tr></table></div></td></tr></table></div></td></tr></table></div></td></tr><tr><td><div><table><tr><td><div>\xe7\xb6\xb2\xe5\x8f\x8b</div></td></tr><tr><td><div>False</div></td></tr><tr><td><div>/fbBrt/default/display_people</div></td></tr><tr><td><div><table><tr><td><div><table><tr><td><div>\xe6\x9c\x80\xe6\x96\xb0\xe5\x9b\x9e\xe8\xa6\x86</div></td></tr><tr><td><div>False</div></td></tr><tr><td><div>/fbBrt/default/addPeople</div></td></tr></table></div></td></tr></table></div></td></tr></table></div></td></tr><tr><td><div><table><tr><td><div>Page</div></td></tr><tr><td><div>False</div></td></tr><tr><td><div>/fbBrt/default/display_page</div></td></tr><tr><td><div><table><tr><td><div><table><tr><td><div>Page Count</div></td></tr><tr><td><div>False</div></td></tr><tr><td><div>/fbBrt/default/index</div></td></tr></table></div></td></tr><tr><td><div><table><tr><td><div>Add Page</div></td></tr><tr><td><div>False</div></td></tr><tr><td><div>/fbBrt/default/addPage</div></td></tr></table></div></td></tr></table></div></td></tr></table></div></td></tr><tr><td><div><table><tr><td><div>Post</div></td></tr><tr><td><div>False</div></td></tr><tr><td><div>/fbBrt/default/display_post</div></td></tr><tr><td><div><table><tr><td><div><table><tr><td><div>Add Post</div></td></tr><tr><td><div>False</div></td></tr><tr><td><div>/fbBrt/default/addpost</div></td></tr></table></div></td></tr></table></div></td></tr></table></div></td></tr></table></div></td></tr><tr><td style="font-weight:bold;vertical-align:top;">meta</td><td style="vertical-align:top;">:</td><td><div><table><tr><td style="font-weight:bold;vertical-align:top;">author</td><td style="vertical-align:top;">:</td><td><div>Your Name &lt;you@example.com&gt;</div></td></tr><tr><td style="font-weight:bold;vertical-align:top;">description</td><td style="vertical-align:top;">:</td><td><div>a cool new app</div></td></tr><tr><td style="font-weight:bold;vertical-align:top;">generator</td><td style="vertical-align:top;">:</td><td><div>Web2py Web Framework</div></td></tr><tr><td style="font-weight:bold;vertical-align:top;">keywords</td><td style="vertical-align:top;">:</td><td><div>web2py, python, framework</div></td></tr></table></div></td></tr><tr><td style="font-weight:bold;vertical-align:top;">models_to_run</td><td style="vertical-align:top;">:</td><td><div><table><tr><td><div>^\\w+\\.py$</div></td></tr><tr><td><div>^newsAPI/\\w+\\.py$</div></td></tr><tr><td><div>^newsAPI/index/\\w+\\.py$</div></td></tr></table></div></td></tr><tr><td style="font-weight:bold;vertical-align:top;">postprocessing</td><td style="vertical-align:top;">:</td><td><div><table></table></div></td></tr><tr><td style="font-weight:bold;vertical-align:top;">session_client</td><td style="vertical-align:top;">:</td><td><div>127.0.0.1</div></td></tr><tr><td style="font-weight:bold;vertical-align:top;">session_cookie_compression_level</td><td style="vertical-align:top;">:</td><td><div>None</div></td></tr><tr><td style="font-weight:bold;vertical-align:top;">session_cookie_expires</td><td style="vertical-align:top;">:</td><td><div>None</div></td></tr><tr><td style="font-weight:bold;vertical-align:top;">session_cookie_key</td><td style="vertical-align:top;">:</td><td><div>None</div></td></tr><tr><td style="font-weight:bold;vertical-align:top;">session_data_name</td><td style="vertical-align:top;">:</td><td><div>session_data_fbbrt</div></td></tr><tr><td style="font-weight:bold;vertical-align:top;">session_file</td><td style="vertical-align:top;">:</td><td><div>&lt;open file &#x27;/Users/logyuan/Documents/web2py/applications/fbBrt/sessions/127.0.0.1-407a5cef-8edd-48e1-9489-fc7da7b99f55&#x27;, mode &#x27;rb+&#x27; at 0x110c20a50&gt;</div></td></tr><tr><td style="font-weight:bold;vertical-align:top;">session_filename</td><td style="vertical-align:top;">:</td><td><div>/Users/logyuan/Documents/web2py/applications/fbBrt/sessions/127.0.0.1-407a5cef-8edd-48e1-9489-fc7da7b99f55</div></td></tr><tr><td style="font-weight:bold;vertical-align:top;">session_hash</td><td style="vertical-align:top;">:</td><td><div>51ad0d952c50bbcc410848e67620966d</div></td></tr><tr><td style="font-weight:bold;vertical-align:top;">session_id</td><td style="vertical-align:top;">:</td><td><div>127.0.0.1-407a5cef-8edd-48e1-9489-fc7da7b99f55</div></td></tr><tr><td style="font-weight:bold;vertical-align:top;">session_id_name</td><td style="vertical-align:top;">:</td><td><div>session_id_fbbrt</div></td></tr><tr><td style="font-weight:bold;vertical-align:top;">session_locked</td><td style="vertical-align:top;">:</td><td><div>True</div></td></tr><tr><td style="font-weight:bold;vertical-align:top;">session_masterapp</td><td style="vertical-align:top;">:</td><td><div>fbBrt</div></td></tr><tr><td style="font-weight:bold;vertical-align:top;">session_new</td><td style="vertical-align:top;">:</td><td><div>False</div></td></tr><tr><td style="font-weight:bold;vertical-align:top;">session_storage_type</td><td style="vertical-align:top;">:</td><td><div>file</div></td></tr><tr><td style="font-weight:bold;vertical-align:top;">status</td><td style="vertical-align:top;">:</td><td><div>200</div></td></tr><tr><td style="font-weight:bold;vertical-align:top;">subtitle</td><td style="vertical-align:top;">:</td><td><div>customize me!</div></td></tr><tr><td style="font-weight:bold;vertical-align:top;">title</td><td style="vertical-align:top;">:</td><td><div>Fbbrt</div></td></tr><tr><td style="font-weight:bold;vertical-align:top;">view</td><td style="vertical-align:top;">:</td><td><div>newsAPI/index.html</div></td></tr></table></div>'
tRp220
sS'locals'
p221
(dp222
S'datetime'
p223
S"<module 'datetime' from '/usr/local/Cellar/pytho...sions/2.7/lib/python2.7/lib-dynload/datetime.so'>"
p224
sS'like_count'
p225
S'1'
sS'likes'
p226
S"{'data': [{'id': '934495629907836', 'name': u'\\u9ec3\\u93f5\\u53f3'}], 'paging': {'cursors': {'after': 'OTM0NDk1NjI5OTA3ODM2', 'before': 'OTM0NDk1NjI5OTA3ODM2'}}}"
p227
sS'created_time'
p228
S'datetime.datetime(2015, 1, 13, 1, 40, 23, tzinfo=tzutc())'
p229
sS'message'
p230
S"u'\\u6e05\\u67e5\\u72d7\\u6c11\\u6d1e16\\u5e74\\u4f86\\u8caa\\u6c59\\u591a\\u5c11\\u7a05\\u91d1'"
p231
sS'segment'
p232
S"[u'\\u6e05\\u67e5', u'\\u72d7\\u6c11\\u6d1e', u'16', u'\\u5e74\\u4f86', u'\\u8caa\\u6c59', u'\\u591a\\u5c11', u'\\u7a05\\u91d1']"
p233
sS'news_href'
p234
S"'812216578849978'"
p235
sS'qtext'
p236
S"'id,from,message,comments.limit(1000),created_time,like_count,can_remove,likes.limit(1000)'"
p237
sS'next_p'
p238
S'None'
p239
sS'comments'
p240
S'None'
p241
sS'from_team'
p242
S"'BRT'"
p243
sS'fid'
p244
S"'812216578849978_812642948807341'"
p245
sS'from_name'
p246
S"u'\\u80b2\\u9418'"
p247
sS'news_source'
p248
S"'\\xe8\\x98\\x8b\\xe6\\x9e\\x9c\\xe6\\x97\\xa5\\xe5\\xa0\\xb1'"
p249
sS'after'
p250
S"'NQ=='"
p251
sS'comm'
p252
S"{'can_remove': False, 'created_time': '2015-01-12T07:26:43+0000', 'from': {'id': '353600261493138', 'name': 'Tso Smile'}, 'id': '812216578849978_812278922177077', 'like_count': 5, 'message': u'\\u53f0\\u4e2dBRT\\u4f86\\u8dd1\\u525b\\u525b\\u597d~~~~', 'user_likes': False}"
p253
sS'data'
p254
S"[{'can_remove': False, 'comments': {'data': [{'can_remove': False, 'created_time': '2015-01-12T23:27:08+0000', 'from': {'id': '674403292668963', 'name': u'\\u912d\\u65ed\\u5b8f'}, 'id': '812216578849978_812604962144473', 'like_count': 2, 'message': u'\\u5728\\u5728\\u90fd\\u986f\\u51fa\\u5176\\u4ed6\\u95...e0d\\u932f\\u7684\\u6642\\u4ee3\\u904e\\u53bb\\u4e86...', 'user_likes': False}, {'can_remove': False, 'created_time': '2015-01-22T10:00:41+0000', 'from': {'id': '1047428125274520', 'name': u'\\u6797\\u5179\\u7a4e'}, 'id': '812216578849978_817350081669961', 'like_count': 0, 'message': u'\\u6211\\u4e5f\\u662f\\u9019\\u9ebc\\u60f3\\uff01\\u5c...ba\\u72af\\u6211 \\u5371\\u5b89\\u8981\\u52a0\\u5f37...', 'user_likes': False}], 'paging': {'cursors': {'after': 'WTI5dGJXVnVkRjlqZFhKemIzSTZPREUzTXpVd01EZ3hOalk1T1RZeE9qRTBNakU1TWpBNE5ERT0=', 'before': 'WTI5dGJXVnVkRjlqZFhKemIzSTZPREV5TmpBME9UWXlNVFEwTkRjek9qRTBNakV4TURVeU1qZz0='}}}, 'created_time': '2015-01-12T03:46:50+0000', 'from': {'id': '901529673201418', 'name': 'Yu-wei Chung'}, 'id': '812216578849978_812222405516062', 'like_count': 41, 'likes': {'data': [{'id': '1091690964190790', 'name': u'\\u937e\\u660e\\u61b2'}, {'id': '1047428125274520', 'name': u'\\u6797\\u5179\\u7a4e'}, {'id': '782514908502791', 'name': 'Ke Vin'}, {'id': '894305510591052', 'name': u'\\u5442\\u6606\\u76ca'}, {'id': '344180579116073', 'name': 'Yunan  Liu'}, {'id': '934495629907836', 'name': u'\\u9ec3\\u93f5\\u53f3'}, {'id': '397493400424676', 'name': u'\\u8a31\\u6817'}, {'id': '10202563846737379', 'name': u'\\u674e\\u5c0f\\u975c'}, {'id': '973663365979512', 'name': 'Sunny Heir Luo'}, {'id': '509579555847719', 'name': u'\\u6d2a\\u6587\\u9806'}, {'id': '779372248823802', 'name': 'Yuching Yang'}, {'id': '959407257425046', 'name': 'FaceGordon Huang'}, {'id': '755809659324', 'name': 'Amy Gao'}, {'id': '353600261493138', 'name': 'Tso Smile'}, {'id': '804313936329614', 'name': u'\\u838a\\u5cf0\\u5609'}, {'id': '964692343555942', 'name': u'\\u9ec3\\u798f'}, {'id': '905197176167512', 'name': u'\\u6797\\u5bb6\\u6bc5'}, {'id': '863761677018455', 'name': 'Leo Lee'}, {'id': '607872755979620', 'name': u'\\u4f59\\u51a0\\u9f8d'}, {'id': '801549683257853', 'name': u'\\u9673\\u5d0e\\u5fa1'}, ...], 'paging': {'cursors': {'after': 'NjIyMDgzNDkxMjI2MjI4', 'before': 'MTA5MTY5MDk2NDE5MDc5MA=='}}}, 'message': u'\\u5509...\\u4f9d\\u7167\\u9019\\u7a2e\\u901f\\u5ea6\\...\\u7b49\\u7d1a\\u771f\\u7684\\u8981\\u52a0\\u5f37\\u3002'}, {'can_remove': False, 'created_time': '2015-01-12T04:55:24+0000', 'from': {'id': '869613379751835', 'name': 'Kunhao Yang'}, 'id': '812216578849978_812240768847559', 'like_count': 40, 'likes': {'data': [{'id': '782514908502791', 'name': 'Ke Vin'}, {'id': '1792490290977066', 'name': u'\\u9673\\u667a\\u52dd'}, {'id': '1058638480819368', 'name': 'Tinny Huang'}, {'id': '934495629907836', 'name': u'\\u9ec3\\u93f5\\u53f3'}, {'id': '397493400424676', 'name': u'\\u8a31\\u6817'}, {'id': '450970065060963', 'name': u'\\u6797\\u93ae\\u5b89'}, {'id': '674403292668963', 'name': u'\\u912d\\u65ed\\u5b8f'}, {'id': '602829393184826', 'name': u'\\u5f90\\u66c9\\u5bb9'}, {'id': '10202563846737379', 'name': u'\\u674e\\u5c0f\\u975c'}, {'id': '405526576281112', 'name': 'Zhong-xian Ke'}, {'id': '1013224652025090', 'name': 'Sofia Lee'}, {'id': '975515689133014', 'name': u'\\u6797\\u594e\\u4f2f'}, {'id': '779372248823802', 'name': 'Yuching Yang'}, {'id': '959407257425046', 'name': 'FaceGordon Huang'}, {'id': '353600261493138', 'name': 'Tso Smile'}, {'id': '804313936329614', 'name': u'\\u838a\\u5cf0\\u5609'}, {'id': '964692343555942', 'name': u'\\u9ec3\\u798f'}, {'id': '905197176167512', 'name': u'\\u6797\\u5bb6\\u6bc5'}, {'id': '934923933185602', 'name': u'\\u6d2a\\u5049\\u51f1'}, {'id': '1035810773099682', 'name': u'\\u5289\\u5409\\u7965'}, ...], 'paging': {'cursors': {'after': 'MTA4MDA4OTI0MjAwNzAwMQ==', 'before': 'NzgyNTE0OTA4NTAyNzkx'}}}, 'message': u'\\u9019\\u662f\\u6211\\u770b\\u904e\\u53f0\\u7063\\u7b...eab\\u624b\\u624d\\u771f\\u7684\\u662f\\u60b6\\u5427...'}, {'can_remove': False, 'created_time': '2015-01-12T03:53:14+0000', 'from': {'id': '359270334259782', 'name': 'Chen Andrew'}, 'id': '812216578849978_812224238849212', 'like_count': 18, 'likes': {'data': [{'id': '1792490290977066', 'name': u'\\u9673\\u667a\\u52dd'}, {'id': '934495629907836', 'name': u'\\u9ec3\\u93f5\\u53f3'}, {'id': '397493400424676', 'name': u'\\u8a31\\u6817'}, {'id': '10202563846737379', 'name': u'\\u674e\\u5c0f\\u975c'}, {'id': '973663365979512', 'name': 'Sunny Heir Luo'}, {'id': '1013224652025090', 'name': 'Sofia Lee'}, {'id': '975515689133014', 'name': u'\\u6797\\u594e\\u4f2f'}, {'id': '779372248823802', 'name': 'Yuching Yang'}, {'id': '10203938042555955', 'name': u'\\u674e\\u5efa\\u8c6b'}, {'id': '10206233648106848', 'name': 'Tien Reed'}, {'id': '607872755979620', 'name': u'\\u4f59\\u51a0\\u9f8d'}, {'id': '1060634047287033', 'name': u'\\u4f55\\u5ca1\\u5cf0'}, {'id': '1539383806327304', 'name': u'\\u5f35\\u7fe0\\u6d93'}, {'id': '350737591794115', 'name': 'Jian Yong Liao'}, {'id': '874899869238225', 'name': u'\\u9ec3\\u827e\\u746a'}, {'id': '500296016776407', 'name': u'\\u8a92\\u5df4\\u53c3'}, {'id': '934094389948251', 'name': u'\\u694a\\u904e\\u4e4b'}], 'paging': {'cursors': {'after': 'OTM0MDk0Mzg5OTQ4MjUx', 'before': 'MTc5MjQ5MDI5MDk3NzA2Ng=='}}}, 'message': u'\\u600e\\u9ebc\\u53ef\\u4ee5\\u9019\\u6a23\\u6c92\\u4e...6\\u963f!! \\u79d1p\\u771f\\u611b\\u627e\\u9ebb\\u7169!'}, {'can_remove': False, 'comments': {'data': [{'can_remove': False, 'created_time': '2015-01-12T07:26:43+0000', 'from': {'id': '353600261493138', 'name': 'Tso Smile'}, 'id': '812216578849978_812278922177077', 'like_count': 5, 'message': u'\\u53f0\\u4e2dBRT\\u4f86\\u8dd1\\u525b\\u525b\\u597d~~~~', 'user_likes': False}], 'paging': {'cursors': {'after': 'WTI5dGJXVnVkRjlqZFhKemIzSTZPREV5TWpjNE9USXlNVGMzTURjM09qRTBNakV3TkRjMk1ETT0=', 'before': 'WTI5dGJXVnVkRjlqZFhKemIzSTZPREV5TWpjNE9USXlNVGMzTURjM09qRTBNakV3TkRjMk1ETT0='}}}, 'created_time': '2015-01-12T03:22:51+0000', 'from': {'id': '1040167182666371', 'name': u'\\u9673\\u67cf\\u7ff0'}, 'id': '812216578849978_812217302183239', 'like_count': 18, 'likes': {'data': [{'id': '397493400424676', 'name': u'\\u8a31\\u6817'}, {'id': '1704046099822453', 'name': 'Szu-ma  Kan'}, {'id': '10202563846737379', 'name': u'\\u674e\\u5c0f\\u975c'}, {'id': '353600261493138', 'name': 'Tso Smile'}, {'id': '964692343555942', 'name': u'\\u9ec3\\u798f'}, {'id': '10206233648106848', 'name': 'Tien Reed'}, {'id': '639837966138878', 'name': 'Liao Grace'}, {'id': '10203830054651498', 'name': u'\\u90b1\\u5143\\u73a0'}, {'id': '801041103299860', 'name': u'\\u5b6b\\u4f2f\\u4ee4'}, {'id': '1567613636819862', 'name': 'Xuang Xiao'}, {'id': '929386313746565', 'name': u'\\u8521\\u4e00\\u5343'}, {'id': '1080089242007001', 'name': u'\\u9673\\u70b3\\u83ef'}, {'id': '874899869238225', 'name': u'\\u9ec3\\u827e\\u746a'}, {'id': '934094389948251', 'name': u'\\u694a\\u904e\\u4e4b'}, {'id': '10200171417043504', 'name': 'Log Jhou'}, {'id': '936024513082502', 'name': 'Ausa Liu'}, {'id': '1028367690510732', 'name': 'Ya-ling Jheng'}], 'paging': {'cursors': {'after': 'MTAyODM2NzY5MDUxMDczMg==', 'before': 'Mzk3NDkzNDAwNDI0Njc2'}}}, 'message': u'\\u5e7d\\u9748\\u516c\\u8eca\\u914d\\u5e7d\\u9748\\u5c08\\u7528\\u9053\\u525b\\u597d'}, {'can_remove': False, 'created_time': '2015-01-12T04:14:02+0000', 'from': {'id': '836328093106750', 'name': 'Roland Tai'}, 'id': '812216578849978_812229815515321', 'like_count': 17, 'likes': {'data': [{'id': '1792490290977066', 'name': u'\\u9673\\u667a\\u52dd'}, {'id': '344180579116073', 'name': 'Yunan  Liu'}, {'id': '934495629907836', 'name': u'\\u9ec3\\u93f5\\u53f3'}, {'id': '10202563846737379', 'name': u'\\u674e\\u5c0f\\u975c'}, {'id': '973663365979512', 'name': 'Sunny Heir Luo'}, {'id': '1013224652025090', 'name': 'Sofia Lee'}, {'id': '509579555847719', 'name': u'\\u6d2a\\u6587\\u9806'}, {'id': '779372248823802', 'name': 'Yuching Yang'}, {'id': '10206233648106848', 'name': 'Tien Reed'}, {'id': '601826079953989', 'name': 'Wbabe  Sun'}, {'id': '1060634047287033', 'name': u'\\u4f55\\u5ca1\\u5cf0'}, {'id': '1539383806327304', 'name': u'\\u5f35\\u7fe0\\u6d93'}, {'id': '671985379577920', 'name': 'Echo Yen'}, {'id': '1080089242007001', 'name': u'\\u9673\\u70b3\\u83ef'}, {'id': '10205830597821301', 'name': 'Rick Lee'}], 'paging': {'cursors': {'after': 'MTAyMDU4MzA1OTc4MjEzMDE=', 'before': 'MTc5MjQ5MDI5MDk3NzA2Ng=='}}}, 'message': u'\\u5c31\\u662f\\u56e0\\u70ba\\u4e0d\\u6e05\\u4e0d\\u69...\\u6709\\u4e00\\u500b\\u99ac\\u82f1\\u4e5d\\u5462\\uff01'}, {'can_remove': False, 'created_time': '2015-01-12T03:53:01+0000', 'from': {'id': '636384126489141', 'name': u'\\u62c9\\u7dad\\u514b'}, 'id': '812216578849978_812224182182551', 'like_count': 15, 'likes': {'data': [{'id': '1026539534066973', 'name': u'\\u5f35\\u8317\\u6eb1'}, {'id': '397493400424676', 'name': u'\\u8a31\\u6817'}, {'id': '450970065060963', 'name': u'\\u6797\\u93ae\\u5b89'}, {'id': '1013224652025090', 'name': 'Sofia Lee'}, {'id': '353600261493138', 'name': 'Tso Smile'}, {'id': '10206233648106848', 'name': 'Tien Reed'}, {'id': '607872755979620', 'name': u'\\u4f59\\u51a0\\u9f8d'}, {'id': '1060634047287033', 'name': u'\\u4f55\\u5ca1\\u5cf0'}, {'id': '1539383806327304', 'name': u'\\u5f35\\u7fe0\\u6d93'}, {'id': '1080089242007001', 'name': u'\\u9673\\u70b3\\u83ef'}, {'id': '1591690981045309', 'name': u'\\u937e\\u5609\\u5b8f'}, {'id': '10205830597821301', 'name': 'Rick Lee'}, {'id': '1603768219857239', 'name': 'Non Nil'}, {'id': '934094389948251', 'name': u'\\u694a\\u904e\\u4e4b'}], 'paging': {'cursors': {'after': 'OTM0MDk0Mzg5OTQ4MjUx', 'before': 'MTAyNjUzOTUzNDA2Njk3Mw=='}}}, 'message': u'\\u7acb\\u6cd5\\u5f9e\\u56b4\\u57f7\\u6cd5\\u5f9e\\u5b...\\u671b\\u7d66\\u7684\\u7269\\u6709\\u6240\\u503c\\u3002'}, {'can_remove': False, 'created_time': '2015-01-12T07:11:23+0000', 'from': {'id': '888485164506935', 'name': 'Jacky Tang'}, 'id': '812216578849978_812275782177391', 'like_count': 4, 'likes': {'data': [{'id': '344180579116073', 'name': 'Yunan  Liu'}, {'id': '10202563846737379', 'name': u'\\u674e\\u5c0f\\u975c'}, {'id': '779372248823802', 'name': 'Yuching Yang'}], 'paging': {'cursors': {'after': 'Nzc5MzcyMjQ4ODIzODAy', 'before': 'MzQ0MTgwNTc5MTE2MDcz'}}}, 'message': u'\\u8981\\u6c42\\u7684\\u5c0d\\uff0c\\u53ea\\u662f\\uff...c92\\u6709\\uff0c\\u9019..\\u6709\\u5f97\\u641e\\u4e86!'}, {'can_remove': False, 'created_time': '2015-01-12T05:31:49+0000', 'from': {'id': '806632839429839', 'name': 'Scur Lai'}, 'id': '812216578849978_812252025513100', 'like_count': 4, 'likes': {'data': [{'id': '1026539534066973', 'name': u'\\u5f35\\u8317\\u6eb1'}, {'id': '10202563846737379', 'name': u'\\u674e\\u5c0f\\u975c'}, {'id': '1060634047287033', 'name': u'\\u4f55\\u5ca1\\u5cf0'}], 'paging': {'cursors': {'after': 'MTA2MDYzNDA0NzI4NzAzMw==', 'before': 'MTAyNjUzOTUzNDA2Njk3Mw=='}}}, 'message': u'\\u8981\\u627e\\u5c40\\u5916\\u4eba \\u6703\\u8a08\\u5...u54f2 \\u958b\\u59cb ! -- \\u6587\\u54f2\\u7dad\\u65b0'}, {'can_remove': False, 'created_time': '2015-01-12T05:59:04+0000', 'from': {'id': '944201142264514', 'name': u'\\u990a\\u591a'}, 'id': '812216578849978_812258645512438', 'like_count': 2, 'likes': {'data': [{'id': '934495629907836', 'name': u'\\u9ec3\\u93f5\\u53f3'}, {'id': '10202563846737379', 'name': u'\\u674e\\u5c0f\\u975c'}], 'paging': {'cursors': {'after': 'MTAyMDI1NjM4NDY3MzczNzk=', 'before': 'OTM0NDk1NjI5OTA3ODM2'}}}, 'message': u'\\u68d2\\u68d2 \\u771f\\u7d66\\u4ed6\\u5229\\u5bb3 \\u...u5b50 \\u5277\\u9664\\u4e00\\u4e9b\\u5ee2\\u7269\\u6389'}, {'can_remove': False, 'created_time': '2015-01-12T06:45:15+0000', 'from': {'id': '10153565374336564', 'name': 'Eros Chang'}, 'id': '812216578849978_812269412178028', 'like_count': 1, 'likes': {'data': [{'id': '708678422583011', 'name': u'\\u674e\\u5fd7\\u9293'}], 'paging': {'cursors': {'after': 'NzA4Njc4NDIyNTgzMDEx', 'before': 'NzA4Njc4NDIyNTgzMDEx'}}}, 'message': u'\\u600e\\u9ebc\\u90a3\\u9ebc\\u80d6?'}, {'can_remove': False, 'created_time': '2015-01-12T14:10:42+0000', 'from': {'id': '1057195397640942', 'name': u'\\u8b1d\\u8b1d'}, 'id': '812216578849978_812412082163761', 'like_count': 1, 'likes': {'data': [{'id': '934495629907836', 'name': u'\\u9ec3\\u93f5\\u53f3'}], 'paging': {'cursors': {'after': 'OTM0NDk1NjI5OTA3ODM2', 'before': 'OTM0NDk1NjI5OTA3ODM2'}}}, 'message': u'\\u53f0\\u4e2d\\u4e5f\\u9700\\u8981\\u9019\\u7a2e\\u5e02\\u9577\\u5566\\u3002'}, {'can_remove': False, 'created_time': '2015-01-13T01:40:23+0000', 'from': {'id': '885508444805403', 'name': u'\\u80b2\\u9418'}, 'id': '812216578849978_812642948807341', 'like_count': 1, 'message': u'\\u6e05\\u67e5\\u72d7\\u6c11\\u6d1e16\\u5e74\\u4f86\\u8caa\\u6c59\\u591a\\u5c11\\u7a05\\u91d1'}, {'can_remove': False, 'created_time': '2015-01-12T06:58:39+0000', 'from': {'id': '480332652119229', 'name': 'Winchi  Li'}, 'id': '812216578849978_812273358844300', 'like_count': 0, 'message': u'\\u4e00\\u822c\\u5de5\\u7a0b\\u7d50\\u7b97\\u5f8c.\\u7....?\\u99ac\\u90dd16\\u5e74\\u672a\\u5217\\u8ca1\\u7522.?'}, {'can_remove': False, 'created_time': '2015-01-12T10:17:28+0000', 'from': {'id': '388684207969946', 'name': u'\\u9673\\u7d18\\u921e'}, 'id': '812216578849978_812327412172228', 'like_count': 0, 'message': u'\\u4ea4\\u63a5\\u4e0d\\u5be6\\uff0c\\u6709\\u7a7a\\u4e...\\u865f\\uff0c\\u6c92\\u6709\\u914d\\u5957\\uff01\\uff1f'}]"
p255
sS'from_id'
p256
S"'885508444805403'"
p257
sS'fb_obj'
p258
S"{'data': [{'can_remove': False, 'comments': {'data': [{'can_remove': False, 'created_time': '2015-01-12T23:27:08+0000', 'from': {...}, 'id': '812216578849978_812604962144473', 'like_count': 2, 'message': u'\\u5728\\u5728\\u90fd\\u986f\\u51fa\\u5176\\u4ed6\\u95...e0d\\u932f\\u7684\\u6642\\u4ee3\\u904e\\u53bb\\u4e86...', 'user_likes': False}, {'can_remove': False, 'created_time': '2015-01-22T10:00:41+0000', 'from': {...}, 'id': '812216578849978_817350081669961', 'like_count': 0, 'message': u'\\u6211\\u4e5f\\u662f\\u9019\\u9ebc\\u60f3\\uff01\\u5c...ba\\u72af\\u6211 \\u5371\\u5b89\\u8981\\u52a0\\u5f37...', 'user_likes': False}], 'paging': {'cursors': {'after': 'WTI5dGJXVnVkRjlqZFhKemIzSTZPREUzTXpVd01EZ3hOalk1T1RZeE9qRTBNakU1TWpBNE5ERT0=', 'before': 'WTI5dGJXVnVkRjlqZFhKemIzSTZPREV5TmpBME9UWXlNVFEwTkRjek9qRTBNakV4TURVeU1qZz0='}}}, 'created_time': '2015-01-12T03:46:50+0000', 'from': {'id': '901529673201418', 'name': 'Yu-wei Chung'}, 'id': '812216578849978_812222405516062', 'like_count': 41, 'likes': {'data': [{'id': '1091690964190790', 'name': u'\\u937e\\u660e\\u61b2'}, {'id': '1047428125274520', 'name': u'\\u6797\\u5179\\u7a4e'}, {'id': '782514908502791', 'name': 'Ke Vin'}, {'id': '894305510591052', 'name': u'\\u5442\\u6606\\u76ca'}, {'id': '344180579116073', 'name': 'Yunan  Liu'}, {'id': '934495629907836', 'name': u'\\u9ec3\\u93f5\\u53f3'}, {'id': '397493400424676', 'name': u'\\u8a31\\u6817'}, {'id': '10202563846737379', 'name': u'\\u674e\\u5c0f\\u975c'}, {'id': '973663365979512', 'name': 'Sunny Heir Luo'}, {'id': '509579555847719', 'name': u'\\u6d2a\\u6587\\u9806'}, {'id': '779372248823802', 'name': 'Yuching Yang'}, {'id': '959407257425046', 'name': 'FaceGordon Huang'}, {'id': '755809659324', 'name': 'Amy Gao'}, {'id': '353600261493138', 'name': 'Tso Smile'}, {'id': '804313936329614', 'name': u'\\u838a\\u5cf0\\u5609'}, {'id': '964692343555942', 'name': u'\\u9ec3\\u798f'}, {'id': '905197176167512', 'name': u'\\u6797\\u5bb6\\u6bc5'}, {'id': '863761677018455', 'name': 'Leo Lee'}, {'id': '607872755979620', 'name': u'\\u4f59\\u51a0\\u9f8d'}, {'id': '801549683257853', 'name': u'\\u9673\\u5d0e\\u5fa1'}, ...], 'paging': {'cursors': {'after': 'NjIyMDgzNDkxMjI2MjI4', 'before': 'MTA5MTY5MDk2NDE5MDc5MA=='}}}, 'message': u'\\u5509...\\u4f9d\\u7167\\u9019\\u7a2e\\u901f\\u5ea6\\...\\u7b49\\u7d1a\\u771f\\u7684\\u8981\\u52a0\\u5f37\\u3002'}, {'can_remove': False, 'created_time': '2015-01-12T04:55:24+0000', 'from': {'id': '869613379751835', 'name': 'Kunhao Yang'}, 'id': '812216578849978_812240768847559', 'like_count': 40, 'likes': {'data': [{'id': '782514908502791', 'name': 'Ke Vin'}, {'id': '1792490290977066', 'name': u'\\u9673\\u667a\\u52dd'}, {'id': '1058638480819368', 'name': 'Tinny Huang'}, {'id': '934495629907836', 'name': u'\\u9ec3\\u93f5\\u53f3'}, {'id': '397493400424676', 'name': u'\\u8a31\\u6817'}, {'id': '450970065060963', 'name': u'\\u6797\\u93ae\\u5b89'}, {'id': '674403292668963', 'name': u'\\u912d\\u65ed\\u5b8f'}, {'id': '602829393184826', 'name': u'\\u5f90\\u66c9\\u5bb9'}, {'id': '10202563846737379', 'name': u'\\u674e\\u5c0f\\u975c'}, {'id': '405526576281112', 'name': 'Zhong-xian Ke'}, {'id': '1013224652025090', 'name': 'Sofia Lee'}, {'id': '975515689133014', 'name': u'\\u6797\\u594e\\u4f2f'}, {'id': '779372248823802', 'name': 'Yuching Yang'}, {'id': '959407257425046', 'name': 'FaceGordon Huang'}, {'id': '353600261493138', 'name': 'Tso Smile'}, {'id': '804313936329614', 'name': u'\\u838a\\u5cf0\\u5609'}, {'id': '964692343555942', 'name': u'\\u9ec3\\u798f'}, {'id': '905197176167512', 'name': u'\\u6797\\u5bb6\\u6bc5'}, {'id': '934923933185602', 'name': u'\\u6d2a\\u5049\\u51f1'}, {'id': '1035810773099682', 'name': u'\\u5289\\u5409\\u7965'}, ...], 'paging': {'cursors': {'after': 'MTA4MDA4OTI0MjAwNzAwMQ==', 'before': 'NzgyNTE0OTA4NTAyNzkx'}}}, 'message': u'\\u9019\\u662f\\u6211\\u770b\\u904e\\u53f0\\u7063\\u7b...eab\\u624b\\u624d\\u771f\\u7684\\u662f\\u60b6\\u5427...'}, {'can_remove': False, 'created_time': '2015-01-12T03:53:14+0000', 'from': {'id': '359270334259782', 'name': 'Chen Andrew'}, 'id': '812216578849978_812224238849212', 'like_count': 18, 'likes': {'data': [{'id': '1792490290977066', 'name': u'\\u9673\\u667a\\u52dd'}, {'id': '934495629907836', 'name': u'\\u9ec3\\u93f5\\u53f3'}, {'id': '397493400424676', 'name': u'\\u8a31\\u6817'}, {'id': '10202563846737379', 'name': u'\\u674e\\u5c0f\\u975c'}, {'id': '973663365979512', 'name': 'Sunny Heir Luo'}, {'id': '1013224652025090', 'name': 'Sofia Lee'}, {'id': '975515689133014', 'name': u'\\u6797\\u594e\\u4f2f'}, {'id': '779372248823802', 'name': 'Yuching Yang'}, {'id': '10203938042555955', 'name': u'\\u674e\\u5efa\\u8c6b'}, {'id': '10206233648106848', 'name': 'Tien Reed'}, {'id': '607872755979620', 'name': u'\\u4f59\\u51a0\\u9f8d'}, {'id': '1060634047287033', 'name': u'\\u4f55\\u5ca1\\u5cf0'}, {'id': '1539383806327304', 'name': u'\\u5f35\\u7fe0\\u6d93'}, {'id': '350737591794115', 'name': 'Jian Yong Liao'}, {'id': '874899869238225', 'name': u'\\u9ec3\\u827e\\u746a'}, {'id': '500296016776407', 'name': u'\\u8a92\\u5df4\\u53c3'}, {'id': '934094389948251', 'name': u'\\u694a\\u904e\\u4e4b'}], 'paging': {'cursors': {'after': 'OTM0MDk0Mzg5OTQ4MjUx', 'before': 'MTc5MjQ5MDI5MDk3NzA2Ng=='}}}, 'message': u'\\u600e\\u9ebc\\u53ef\\u4ee5\\u9019\\u6a23\\u6c92\\u4e...6\\u963f!! \\u79d1p\\u771f\\u611b\\u627e\\u9ebb\\u7169!'}, {'can_remove': False, 'comments': {'data': [{'can_remove': False, 'created_time': '2015-01-12T07:26:43+0000', 'from': {...}, 'id': '812216578849978_812278922177077', 'like_count': 5, 'message': u'\\u53f0\\u4e2dBRT\\u4f86\\u8dd1\\u525b\\u525b\\u597d~~~~', 'user_likes': False}], 'paging': {'cursors': {'after': 'WTI5dGJXVnVkRjlqZFhKemIzSTZPREV5TWpjNE9USXlNVGMzTURjM09qRTBNakV3TkRjMk1ETT0=', 'before': 'WTI5dGJXVnVkRjlqZFhKemIzSTZPREV5TWpjNE9USXlNVGMzTURjM09qRTBNakV3TkRjMk1ETT0='}}}, 'created_time': '2015-01-12T03:22:51+0000', 'from': {'id': '1040167182666371', 'name': u'\\u9673\\u67cf\\u7ff0'}, 'id': '812216578849978_812217302183239', 'like_count': 18, 'likes': {'data': [{'id': '397493400424676', 'name': u'\\u8a31\\u6817'}, {'id': '1704046099822453', 'name': 'Szu-ma  Kan'}, {'id': '10202563846737379', 'name': u'\\u674e\\u5c0f\\u975c'}, {'id': '353600261493138', 'name': 'Tso Smile'}, {'id': '964692343555942', 'name': u'\\u9ec3\\u798f'}, {'id': '10206233648106848', 'name': 'Tien Reed'}, {'id': '639837966138878', 'name': 'Liao Grace'}, {'id': '10203830054651498', 'name': u'\\u90b1\\u5143\\u73a0'}, {'id': '801041103299860', 'name': u'\\u5b6b\\u4f2f\\u4ee4'}, {'id': '1567613636819862', 'name': 'Xuang Xiao'}, {'id': '929386313746565', 'name': u'\\u8521\\u4e00\\u5343'}, {'id': '1080089242007001', 'name': u'\\u9673\\u70b3\\u83ef'}, {'id': '874899869238225', 'name': u'\\u9ec3\\u827e\\u746a'}, {'id': '934094389948251', 'name': u'\\u694a\\u904e\\u4e4b'}, {'id': '10200171417043504', 'name': 'Log Jhou'}, {'id': '936024513082502', 'name': 'Ausa Liu'}, {'id': '1028367690510732', 'name': 'Ya-ling Jheng'}], 'paging': {'cursors': {'after': 'MTAyODM2NzY5MDUxMDczMg==', 'before': 'Mzk3NDkzNDAwNDI0Njc2'}}}, 'message': u'\\u5e7d\\u9748\\u516c\\u8eca\\u914d\\u5e7d\\u9748\\u5c08\\u7528\\u9053\\u525b\\u597d'}, {'can_remove': False, 'created_time': '2015-01-12T04:14:02+0000', 'from': {'id': '836328093106750', 'name': 'Roland Tai'}, 'id': '812216578849978_812229815515321', 'like_count': 17, 'likes': {'data': [{'id': '1792490290977066', 'name': u'\\u9673\\u667a\\u52dd'}, {'id': '344180579116073', 'name': 'Yunan  Liu'}, {'id': '934495629907836', 'name': u'\\u9ec3\\u93f5\\u53f3'}, {'id': '10202563846737379', 'name': u'\\u674e\\u5c0f\\u975c'}, {'id': '973663365979512', 'name': 'Sunny Heir Luo'}, {'id': '1013224652025090', 'name': 'Sofia Lee'}, {'id': '509579555847719', 'name': u'\\u6d2a\\u6587\\u9806'}, {'id': '779372248823802', 'name': 'Yuching Yang'}, {'id': '10206233648106848', 'name': 'Tien Reed'}, {'id': '601826079953989', 'name': 'Wbabe  Sun'}, {'id': '1060634047287033', 'name': u'\\u4f55\\u5ca1\\u5cf0'}, {'id': '1539383806327304', 'name': u'\\u5f35\\u7fe0\\u6d93'}, {'id': '671985379577920', 'name': 'Echo Yen'}, {'id': '1080089242007001', 'name': u'\\u9673\\u70b3\\u83ef'}, {'id': '10205830597821301', 'name': 'Rick Lee'}], 'paging': {'cursors': {'after': 'MTAyMDU4MzA1OTc4MjEzMDE=', 'before': 'MTc5MjQ5MDI5MDk3NzA2Ng=='}}}, 'message': u'\\u5c31\\u662f\\u56e0\\u70ba\\u4e0d\\u6e05\\u4e0d\\u69...\\u6709\\u4e00\\u500b\\u99ac\\u82f1\\u4e5d\\u5462\\uff01'}, {'can_remove': False, 'created_time': '2015-01-12T03:53:01+0000', 'from': {'id': '636384126489141', 'name': u'\\u62c9\\u7dad\\u514b'}, 'id': '812216578849978_812224182182551', 'like_count': 15, 'likes': {'data': [{'id': '1026539534066973', 'name': u'\\u5f35\\u8317\\u6eb1'}, {'id': '397493400424676', 'name': u'\\u8a31\\u6817'}, {'id': '450970065060963', 'name': u'\\u6797\\u93ae\\u5b89'}, {'id': '1013224652025090', 'name': 'Sofia Lee'}, {'id': '353600261493138', 'name': 'Tso Smile'}, {'id': '10206233648106848', 'name': 'Tien Reed'}, {'id': '607872755979620', 'name': u'\\u4f59\\u51a0\\u9f8d'}, {'id': '1060634047287033', 'name': u'\\u4f55\\u5ca1\\u5cf0'}, {'id': '1539383806327304', 'name': u'\\u5f35\\u7fe0\\u6d93'}, {'id': '1080089242007001', 'name': u'\\u9673\\u70b3\\u83ef'}, {'id': '1591690981045309', 'name': u'\\u937e\\u5609\\u5b8f'}, {'id': '10205830597821301', 'name': 'Rick Lee'}, {'id': '1603768219857239', 'name': 'Non Nil'}, {'id': '934094389948251', 'name': u'\\u694a\\u904e\\u4e4b'}], 'paging': {'cursors': {'after': 'OTM0MDk0Mzg5OTQ4MjUx', 'before': 'MTAyNjUzOTUzNDA2Njk3Mw=='}}}, 'message': u'\\u7acb\\u6cd5\\u5f9e\\u56b4\\u57f7\\u6cd5\\u5f9e\\u5b...\\u671b\\u7d66\\u7684\\u7269\\u6709\\u6240\\u503c\\u3002'}, {'can_remove': False, 'created_time': '2015-01-12T07:11:23+0000', 'from': {'id': '888485164506935', 'name': 'Jacky Tang'}, 'id': '812216578849978_812275782177391', 'like_count': 4, 'likes': {'data': [{'id': '344180579116073', 'name': 'Yunan  Liu'}, {'id': '10202563846737379', 'name': u'\\u674e\\u5c0f\\u975c'}, {'id': '779372248823802', 'name': 'Yuching Yang'}], 'paging': {'cursors': {'after': 'Nzc5MzcyMjQ4ODIzODAy', 'before': 'MzQ0MTgwNTc5MTE2MDcz'}}}, 'message': u'\\u8981\\u6c42\\u7684\\u5c0d\\uff0c\\u53ea\\u662f\\uff...c92\\u6709\\uff0c\\u9019..\\u6709\\u5f97\\u641e\\u4e86!'}, {'can_remove': False, 'created_time': '2015-01-12T05:31:49+0000', 'from': {'id': '806632839429839', 'name': 'Scur Lai'}, 'id': '812216578849978_812252025513100', 'like_count': 4, 'likes': {'data': [{'id': '1026539534066973', 'name': u'\\u5f35\\u8317\\u6eb1'}, {'id': '10202563846737379', 'name': u'\\u674e\\u5c0f\\u975c'}, {'id': '1060634047287033', 'name': u'\\u4f55\\u5ca1\\u5cf0'}], 'paging': {'cursors': {'after': 'MTA2MDYzNDA0NzI4NzAzMw==', 'before': 'MTAyNjUzOTUzNDA2Njk3Mw=='}}}, 'message': u'\\u8981\\u627e\\u5c40\\u5916\\u4eba \\u6703\\u8a08\\u5...u54f2 \\u958b\\u59cb ! -- \\u6587\\u54f2\\u7dad\\u65b0'}, {'can_remove': False, 'created_time': '2015-01-12T05:59:04+0000', 'from': {'id': '944201142264514', 'name': u'\\u990a\\u591a'}, 'id': '812216578849978_812258645512438', 'like_count': 2, 'likes': {'data': [{'id': '934495629907836', 'name': u'\\u9ec3\\u93f5\\u53f3'}, {'id': '10202563846737379', 'name': u'\\u674e\\u5c0f\\u975c'}], 'paging': {'cursors': {'after': 'MTAyMDI1NjM4NDY3MzczNzk=', 'before': 'OTM0NDk1NjI5OTA3ODM2'}}}, 'message': u'\\u68d2\\u68d2 \\u771f\\u7d66\\u4ed6\\u5229\\u5bb3 \\u...u5b50 \\u5277\\u9664\\u4e00\\u4e9b\\u5ee2\\u7269\\u6389'}, {'can_remove': False, 'created_time': '2015-01-12T06:45:15+0000', 'from': {'id': '10153565374336564', 'name': 'Eros Chang'}, 'id': '812216578849978_812269412178028', 'like_count': 1, 'likes': {'data': [{'id': '708678422583011', 'name': u'\\u674e\\u5fd7\\u9293'}], 'paging': {'cursors': {'after': 'NzA4Njc4NDIyNTgzMDEx', 'before': 'NzA4Njc4NDIyNTgzMDEx'}}}, 'message': u'\\u600e\\u9ebc\\u90a3\\u9ebc\\u80d6?'}, {'can_remove': False, 'created_time': '2015-01-12T14:10:42+0000', 'from': {'id': '1057195397640942', 'name': u'\\u8b1d\\u8b1d'}, 'id': '812216578849978_812412082163761', 'like_count': 1, 'likes': {'data': [{'id': '934495629907836', 'name': u'\\u9ec3\\u93f5\\u53f3'}], 'paging': {'cursors': {'after': 'OTM0NDk1NjI5OTA3ODM2', 'before': 'OTM0NDk1NjI5OTA3ODM2'}}}, 'message': u'\\u53f0\\u4e2d\\u4e5f\\u9700\\u8981\\u9019\\u7a2e\\u5e02\\u9577\\u5566\\u3002'}, {'can_remove': False, 'created_time': '2015-01-13T01:40:23+0000', 'from': {'id': '885508444805403', 'name': u'\\u80b2\\u9418'}, 'id': '812216578849978_812642948807341', 'like_count': 1, 'message': u'\\u6e05\\u67e5\\u72d7\\u6c11\\u6d1e16\\u5e74\\u4f86\\u8caa\\u6c59\\u591a\\u5c11\\u7a05\\u91d1'}, {'can_remove': False, 'created_time': '2015-01-12T06:58:39+0000', 'from': {'id': '480332652119229', 'name': 'Winchi  Li'}, 'id': '812216578849978_812273358844300', 'like_count': 0, 'message': u'\\u4e00\\u822c\\u5de5\\u7a0b\\u7d50\\u7b97\\u5f8c.\\u7....?\\u99ac\\u90dd16\\u5e74\\u672a\\u5217\\u8ca1\\u7522.?'}, {'can_remove': False, 'created_time': '2015-01-12T10:17:28+0000', 'from': {'id': '388684207969946', 'name': u'\\u9673\\u7d18\\u921e'}, 'id': '812216578849978_812327412172228', 'like_count': 0, 'message': u'\\u4ea4\\u63a5\\u4e0d\\u5be6\\uff0c\\u6709\\u7a7a\\u4e...\\u865f\\uff0c\\u6c92\\u6709\\u914d\\u5957\\uff01\\uff1f'}], 'paging': {'cursors': {'after': 'NQ==', 'before': 'MTg='}}}"
p259
sS'ids'
p260
S"'812216578849978'"
p261
sS'item'
p262
S"{'can_remove': False, 'created_time': '2015-01-13T01:40:23+0000', 'from': {'id': '885508444805403', 'name': u'\\u80b2\\u9418'}, 'id': '812216578849978_812642948807341', 'like_count': 1, 'message': u'\\u6e05\\u67e5\\u72d7\\u6c11\\u6d1e16\\u5e74\\u4f86\\u8caa\\u6c59\\u591a\\u5c11\\u7a05\\u91d1'}"
p263
sS'can_remove'
p264
S'False'
p265
sS'graph'
p266
S'<facebook.GraphAPI object>'
p267
sS'comments_arr'
p268
S"[u'\\u5509...\\u4f9d\\u7167\\u9019\\u7a2e\\u901f\\u5ea6\\...\\u7b49\\u7d1a\\u771f\\u7684\\u8981\\u52a0\\u5f37\\u3002', u'\\u5728\\u5728\\u90fd\\u986f\\u51fa\\u5176\\u4ed6\\u95...e0d\\u932f\\u7684\\u6642\\u4ee3\\u904e\\u53bb\\u4e86...', u'\\u6211\\u4e5f\\u662f\\u9019\\u9ebc\\u60f3\\uff01\\u5c...ba\\u72af\\u6211 \\u5371\\u5b89\\u8981\\u52a0\\u5f37...', u'\\u9019\\u662f\\u6211\\u770b\\u904e\\u53f0\\u7063\\u7b...eab\\u624b\\u624d\\u771f\\u7684\\u662f\\u60b6\\u5427...', u'\\u600e\\u9ebc\\u53ef\\u4ee5\\u9019\\u6a23\\u6c92\\u4e...6\\u963f!! \\u79d1p\\u771f\\u611b\\u627e\\u9ebb\\u7169!', u'\\u5e7d\\u9748\\u516c\\u8eca\\u914d\\u5e7d\\u9748\\u5c08\\u7528\\u9053\\u525b\\u597d', u'\\u53f0\\u4e2dBRT\\u4f86\\u8dd1\\u525b\\u525b\\u597d~~~~', u'\\u5c31\\u662f\\u56e0\\u70ba\\u4e0d\\u6e05\\u4e0d\\u69...\\u6709\\u4e00\\u500b\\u99ac\\u82f1\\u4e5d\\u5462\\uff01', u'\\u7acb\\u6cd5\\u5f9e\\u56b4\\u57f7\\u6cd5\\u5f9e\\u5b...\\u671b\\u7d66\\u7684\\u7269\\u6709\\u6240\\u503c\\u3002', u'\\u8981\\u6c42\\u7684\\u5c0d\\uff0c\\u53ea\\u662f\\uff...c92\\u6709\\uff0c\\u9019..\\u6709\\u5f97\\u641e\\u4e86!', u'\\u8981\\u627e\\u5c40\\u5916\\u4eba \\u6703\\u8a08\\u5...u54f2 \\u958b\\u59cb ! -- \\u6587\\u54f2\\u7dad\\u65b0', u'\\u68d2\\u68d2 \\u771f\\u7d66\\u4ed6\\u5229\\u5bb3 \\u...u5b50 \\u5277\\u9664\\u4e00\\u4e9b\\u5ee2\\u7269\\u6389', u'\\u600e\\u9ebc\\u90a3\\u9ebc\\u80d6?', u'\\u53f0\\u4e2d\\u4e5f\\u9700\\u8981\\u9019\\u7a2e\\u5e02\\u9577\\u5566\\u3002', u'\\u6e05\\u67e5\\u72d7\\u6c11\\u6d1e16\\u5e74\\u4f86\\u8caa\\u6c59\\u591a\\u5c11\\u7a05\\u91d1']"
p269
sssS'traceback'
p270
S'Traceback (most recent call last):\n  File "/Users/logyuan/Documents/web2py/gluon/restricted.py", line 220, in restricted\n    exec ccode in environment\n  File "/Users/logyuan/Documents/web2py/applications/fbBrt/controllers/newsAPI.py", line 518, in <module>\n  File "/Users/logyuan/Documents/web2py/gluon/globals.py", line 385, in <lambda>\n    self._caller = lambda f: f()\n  File "/Users/logyuan/Documents/web2py/applications/fbBrt/controllers/newsAPI.py", line 84, in index\n    checkDBNewsComments()\n  File "/Users/logyuan/Documents/web2py/gluon/tools.py", line 3287, in f\n    return action(*a, **b)\n  File "/Users/logyuan/Documents/web2py/applications/fbBrt/controllers/newsAPI.py", line 268, in checkDBNewsComments\n    getNewsComments(ids, from_team, news_source)\n  File "/Users/logyuan/Documents/web2py/gluon/tools.py", line 3287, in f\n    return action(*a, **b)\n  File "/Users/logyuan/Documents/web2py/applications/fbBrt/models/graph.py", line 1566, in getNewsComments\n    likes = item["likes"] if like_count > 0 else {}\nKeyError: \'likes\'\n'
p271
s.